Certificate:
    Data:
        Version: 1 (0x0)
        Serial Number: 1 (0x1)
    Signature Algorithm: sha256WithRSAEncryption
        Issuer: C=IN, CN=Gov1
        Validity
            Not Before: Mar  7 14:17:45 2022 GMT
            Not After : Mar  7 14:17:45 2023 GMT
        Subject: C=IN, CN=Gov2
        Subject Public Key Info:
            Public Key Algorithm: rsaEncryption
                Public-Key: (2048 bit)
                Modulus:
                    00:bd:36:73:be:a3:e9:da:4c:04:38:45:59:4c:91:
                    7e:3a:0f:a2:16:4f:b0:2b:4f:41:e9:40:49:3d:2b:
                    da:d8:f6:f2:2e:29:38:a0:a0:b9:85:22:9c:0f:6b:
                    2a:be:07:7e:04:ae:85:25:d3:2e:bb:33:24:d2:b9:
                    30:4b:40:12:92:4a:4d:cb:30:3b:b9:89:94:de:53:
                    e4:e7:5d:82:95:87:9d:24:bd:2b:95:cf:43:7f:5c:
                    79:d9:42:be:79:69:d4:62:72:84:41:1b:1a:44:1f:
                    1a:a1:7a:4f:06:97:57:74:9c:67:43:5c:bd:84:a1:
                    bd:7a:6f:18:5f:d4:bf:65:b3:1c:24:d8:71:95:b0:
                    c9:98:a6:7b:81:79:b2:8e:cc:39:91:18:42:49:fd:
                    04:8b:15:74:41:ea:d0:31:4c:91:96:58:b0:2d:5a:
                    39:42:fc:09:b9:09:04:cd:64:1e:c0:9c:22:a3:92:
                    e6:df:83:ed:4b:ef:82:a9:37:71:1b:bf:2a:6d:f4:
                    c6:27:32:6f:13:aa:29:f3:45:f8:a2:ec:07:3d:ac:
                    60:18:0b:0e:08:fc:82:ae:14:b3:56:b8:d9:20:21:
                    dc:36:4c:5c:16:13:f0:57:51:b4:ad:ab:e9:01:8d:
                    15:74:c3:a3:1a:fa:48:e1:6f:86:b6:e6:41:1c:c6:
                    b1:6d
                Exponent: 65537 (0x10001)
    Signature Algorithm: sha256WithRSAEncryption
         aa:d9:8f:ea:89:3d:33:8a:bd:60:5f:41:81:4e:eb:f8:f9:8a:
         93:af:30:5d:aa:db:5a:4b:af:0e:2c:16:a3:19:b4:91:a2:7c:
         28:16:53:ee:25:19:f9:de:85:09:40:d5:8e:51:ee:96:1b:52:
         af:54:ed:45:12:25:fb:5a:d3:d9:59:36:8e:ba:b2:96:42:ff:
         51:a0:c2:ca:e3:ce:15:16:f9:88:ec:23:66:8d:ba:fc:f0:d9:
         e3:c3:1c:0e:b6:be:d3:ef:65:d7:47:21:c3:a9:86:96:77:8a:
         d5:40:61:56:86:ca:8a:32:d6:3f:d4:f3:22:9d:76:ee:93:a1:
         d8:2e:6d:36:f2:e6:c2:16:86:45:a6:7c:81:02:b3:1c:2c:18:
         46:02:0b:98:46:0b:d0:de:c7:bc:dd:f2:03:fb:16:07:56:d9:
         86:6e:fd:f7:fc:d1:6d:cc:8e:d3:b6:6a:b1:4c:48:83:f3:81:
         ad:03:d3:34:a8:aa:bc:63:ab:bb:f3:e4:15:77:9b:e4:5c:89:
         ab:6a:e4:0e:aa:e5:0b:d1:16:a4:8b:b5:c7:40:0e:e3:6e:a0:
         f4:96:40:90:5d:18:52:b4:1f:e8:02:6a:9f:21:1a:8b:f4:14:
         2d:b7:70:df:5d:e2:e7:93:ec:03:0b:a7:1c:f8:f6:d2:ab:91:
         20:92:87:b8
-----BEGIN CERTIFICATE-----
MIICrDCCAZQCAQEwDQYJKoZIhvcNAQELBQAwHDELMAkGA1UEBhMCSU4xDTALBgNV
BAMMBEdvdjEwHhcNMjIwMzA3MTQxNzQ1WhcNMjMwMzA3MTQxNzQ1WjAcMQswCQYD
VQQGEwJJTjENMAsGA1UEAwwER292MjCCASIwDQYJKoZIhvcNAQEBBQADggEPADCC
AQoCggEBAL02c76j6dpMBDhFWUyRfjoPohZPsCtPQelAST0r2tj28i4pOKCguYUi
nA9rKr4HfgSuhSXTLrszJNK5MEtAEpJKTcswO7mJlN5T5OddgpWHnSS9K5XPQ39c
edlCvnlp1GJyhEEbGkQfGqF6TwaXV3ScZ0NcvYShvXpvGF/Uv2WzHCTYcZWwyZim
e4F5so7MOZEYQkn9BIsVdEHq0DFMkZZYsC1aOUL8CbkJBM1kHsCcIqOS5t+D7Uvv
gqk3cRu/Km30xicybxOqKfNF+KLsBz2sYBgLDgj8gq4Us1a42SAh3DZMXBYT8FdR
tK2r6QGNFXTDoxr6SOFvhrbmQRzGsW0CAwEAATANBgkqhkiG9w0BAQsFAAOCAQEA
qtmP6ok9M4q9YF9BgU7r+PmKk68wXarbWkuvDiwWoxm0kaJ8KBZT7iUZ+d6FCUDV
jlHulhtSr1TtRRIl+1rT2Vk2jrqylkL/UaDCyuPOFRb5iOwjZo26/PDZ48McDra+
0+9l10chw6mGlneK1UBhVobKijLWP9TzIp127pOh2C5tNvLmwhaGRaZ8gQKzHCwY
RgILmEYL0N7HvN3yA/sWB1bZhm799/zRbcyO07ZqsUxIg/OBrQPTNKiqvGOru/Pk
FXeb5FyJq2rkDqrlC9EWpIu1x0AO426g9JZAkF0YUrQf6AJqnyEai/QULbdw313i
55PsAwunHPj20quRIJKHuA==
-----END CERTIFICATE-----
