Certificate:
    Data:
        Version: 1 (0x0)
        Serial Number: 2 (0x2)
    Signature Algorithm: ecdsa-with-SHA256
        Issuer: C=IN, CN=Gov1
        Validity
            Not Before: Mar  7 18:38:50 2022 GMT
            Not After : Mar  7 18:38:50 2023 GMT
        Subject: C=IN, CN=Gov2
        Subject Public Key Info:
            Public Key Algorithm: id-ecPublicKey
                Public-Key: (256 bit)
                pub: 
                    04:26:cb:d1:21:8b:73:87:da:73:35:c0:17:8a:98:
                    df:10:c2:3c:5b:48:d3:aa:51:fd:bb:7c:1b:be:d7:
                    b7:9b:ed:dd:b3:e7:3e:90:15:15:0e:c3:54:37:c8:
                    26:bb:12:dd:55:3f:f5:d9:c9:9a:b8:bd:6c:ff:68:
                    f8:83:80:df:a0
                ASN1 OID: prime256v1
                NIST CURVE: P-256
    Signature Algorithm: ecdsa-with-SHA256
         30:45:02:21:00:9e:f0:9d:3a:d4:2e:aa:95:b2:cd:8b:55:22:
         91:e7:c5:19:84:cc:0f:54:b4:ff:e6:3e:11:c1:e6:36:de:47:
         65:02:20:35:18:1f:b2:aa:08:42:51:fe:d8:df:df:cc:3b:11:
         a5:e6:9b:34:a8:4b:43:c1:28:a8:27:1c:07:e1:e3:5d:df
-----BEGIN CERTIFICATE-----
MIIBHzCBxgIBAjAKBggqhkjOPQQDAjAcMQswCQYDVQQGEwJJTjENMAsGA1UEAwwE
R292MTAeFw0yMjAzMDcxODM4NTBaFw0yMzAzMDcxODM4NTBaMBwxCzAJBgNVBAYT
AklOMQ0wCwYDVQQDDARHb3YyMFkwEwYHKoZIzj0CAQYIKoZIzj0DAQcDQgAEJsvR
IYtzh9pzNcAXipjfEMI8W0jTqlH9u3wbvte3m+3ds+c+kBUVDsNUN8gmuxLdVT/1
2cmauL1s/2j4g4DfoDAKBggqhkjOPQQDAgNIADBFAiEAnvCdOtQuqpWyzYtVIpHn
xRmEzA9UtP/mPhHB5jbeR2UCIDUYH7KqCEJR/tjf38w7EaXmmzSoS0PBKKgnHAfh
413f
-----END CERTIFICATE-----
