Certificate:
    Data:
        Version: 1 (0x0)
        Serial Number: 3 (0x3)
        Signature Algorithm: sha256WithRSAEncryption
        Issuer: C=IN, CN=Gov1
        Validity
            Not Before: Aug 15 08:00:00 2012 GMT
            Not After : Aug 15 09:00:00 2012 GMT
        Subject: C=IN, CN=Gov2
        Subject Public Key Info:
            Public Key Algorithm: rsaEncryption
                Public-Key: (2048 bit)
                Modulus:
                    00:d8:00:53:7f:00:c7:90:5f:ee:03:37:12:ea:c6:
                    1b:db:bb:ef:03:21:2b:e5:68:0f:13:07:a4:fc:cf:
                    56:d8:51:6a:22:19:d8:6a:05:24:0a:17:02:2f:3b:
                    75:c8:1d:ab:15:11:b1:53:b3:b7:6e:86:d1:69:dd:
                    56:70:1b:de:03:0c:4b:01:d5:57:45:35:ec:95:80:
                    00:90:75:25:35:33:21:ec:0d:26:59:6d:95:5c:9d:
                    23:ea:a4:da:41:2a:49:95:7d:79:aa:78:95:04:b0:
                    21:ff:f7:86:fa:d6:f9:2d:85:65:57:92:2b:dd:d9:
                    8c:c1:66:c5:34:12:cc:50:7b:60:5b:78:e8:02:92:
                    43:60:c1:93:4f:64:8b:b2:30:5d:95:c7:f2:2d:57:
                    61:5b:c4:b9:4f:90:0f:d5:76:b4:4d:49:ff:39:71:
                    ad:5d:93:ce:3b:75:85:cb:01:57:f7:f6:af:22:79:
                    c4:3f:b7:04:8d:ff:0e:36:8d:a6:79:de:5b:e2:6a:
                    a5:9c:7a:e9:c6:48:10:21:9c:b9:19:5f:b2:d3:9d:
                    51:2d:6d:d2:b4:65:41:54:79:62:ce:94:8f:dd:b7:
                    79:47:4f:0f:e9:d9:57:a5:9b:e7:ed:11:86:f1:a6:
                    d8:c9:78:cd:cc:f8:7b:ea:9b:3f:f4:f9:3e:c6:af:
                    fd:53
                Exponent: 65537 (0x10001)
    Signature Algorithm: sha256WithRSAEncryption
    Signature Value:
        28:b9:24:64:af:85:70:f7:2b:17:3a:10:a3:ab:46:f2:4f:c4:
        dc:40:ea:15:1a:aa:77:eb:49:89:66:c3:2c:5d:da:db:f2:77:
        b1:32:5b:d8:1d:ff:5a:ac:91:65:eb:c0:d3:ab:5b:ab:4b:25:
        7f:54:ee:f9:99:7b:1d:62:95:ae:21:f6:0c:0b:39:ae:94:b1:
        62:f7:20:64:62:f0:a8:45:d2:bb:d4:8a:31:85:e7:61:35:7d:
        97:85:a4:b6:21:84:bf:ac:0e:f2:38:53:2b:cb:23:b4:98:64:
        2f:30:f8:23:53:ab:ff:66:54:79:df:0e:24:10:ad:be:f4:b8:
        02:58:c7:08:90:da:b8:6c:52:74:ab:a7:05:aa:30:9a:c3:cc:
        d9:f5:d8:62:69:31:2f:c5:63:44:ec:ef:84:79:51:d4:7e:9e:
        0d:ae:bd:c4:b8:b8:51:37:6a:9e:9f:20:39:98:10:41:b4:a4:
        37:43:28:42:b2:d5:92:cc:5e:d9:dc:5c:38:a8:a9:16:24:29:
        21:25:c7:3b:e8:d8:5b:67:b1:1d:fd:88:30:21:c9:4d:d4:08:
        44:db:fa:7d:63:38:85:a2:03:78:da:17:f0:3e:fa:8a:03:c0:
        38:fc:a6:b6:50:cf:80:5d:11:c5:04:56:53:e2:87:d8:4f:f5:
        86:03:7f:f9
-----BEGIN CERTIFICATE-----
MIICrDCCAZQCAQMwDQYJKoZIhvcNAQELBQAwHDELMAkGA1UEBhMCSU4xDTALBgNV
BAMMBEdvdjEwHhcNMTIwODE1MDgwMDAwWhcNMTIwODE1MDkwMDAwWjAcMQswCQYD
VQQGEwJJTjENMAsGA1UEAwwER292MjCCASIwDQYJKoZIhvcNAQEBBQADggEPADCC
AQoCggEBANgAU38Ax5Bf7gM3EurGG9u77wMhK+VoDxMHpPzPVthRaiIZ2GoFJAoX
Ai87dcgdqxURsVOzt26G0WndVnAb3gMMSwHVV0U17JWAAJB1JTUzIewNJlltlVyd
I+qk2kEqSZV9eap4lQSwIf/3hvrW+S2FZVeSK93ZjMFmxTQSzFB7YFt46AKSQ2DB
k09ki7IwXZXH8i1XYVvEuU+QD9V2tE1J/zlxrV2Tzjt1hcsBV/f2ryJ5xD+3BI3/
DjaNpnneW+JqpZx66cZIECGcuRlfstOdUS1t0rRlQVR5Ys6Uj923eUdPD+nZV6Wb
5+0RhvGm2Ml4zcz4e+qbP/T5Psav/VMCAwEAATANBgkqhkiG9w0BAQsFAAOCAQEA
KLkkZK+FcPcrFzoQo6tG8k/E3EDqFRqqd+tJiWbDLF3a2/J3sTJb2B3/WqyRZevA
06tbq0slf1Tu+Zl7HWKVriH2DAs5rpSxYvcgZGLwqEXSu9SKMYXnYTV9l4WktiGE
v6wO8jhTK8sjtJhkLzD4I1Or/2ZUed8OJBCtvvS4AljHCJDauGxSdKunBaowmsPM
2fXYYmkxL8VjROzvhHlR1H6eDa69xLi4UTdqnp8gOZgQQbSkN0MoQrLVksxe2dxc
OKipFiQpISXHO+jYW2exHf2IMCHJTdQIRNv6fWM4haIDeNoX8D76igPAOPymtlDP
gF0RxQRWU+KH2E/1hgN/+Q==
-----END CERTIFICATE-----
