Certificate:
    Data:
        Version: 1 (0x0)
        Serial Number: 4 (0x4)
        Signature Algorithm: sha256WithRSAEncryption
        Issuer: C=IN, CN=Gov1
        Validity
            Not Before: Jul  6 08:24:48 2022 GMT
            Not After : Jul  6 08:24:48 2023 GMT
        Subject: C=IN, CN=Gov2
        Subject Public Key Info:
            Public Key Algorithm: rsaEncryption
                Public-Key: (2048 bit)
                Modulus:
                    00:f2:e6:04:88:f8:c4:ee:3a:b3:a9:4f:f8:be:5d:
                    a4:05:d8:3e:27:c7:03:2d:5c:a8:cb:76:95:77:cd:
                    76:7a:60:90:62:fb:7b:4a:bc:7b:12:dd:32:2f:2a:
                    c9:c1:fe:66:68:6b:50:a7:80:df:e2:ed:eb:d7:92:
                    e4:76:62:6e:4b:18:58:8b:92:a6:57:a3:09:c1:5b:
                    10:65:91:dd:2b:1b:47:8a:bf:e2:f2:84:d3:ce:61:
                    79:a6:f4:ea:78:3d:83:ac:ac:6e:99:6d:99:2c:00:
                    74:66:32:2e:c5:20:1f:9d:60:25:37:2c:82:13:84:
                    47:74:48:40:96:2d:73:77:47:8c:12:a0:66:68:49:
                    e9:9b:b5:64:4a:54:fd:af:93:5e:b2:e4:ed:7d:4b:
                    60:1d:fe:80:6f:0e:af:24:f7:98:6e:2e:f7:60:20:
                    e4:fe:e1:40:d3:a0:81:68:6b:ed:8e:a0:0a:e5:66:
                    4b:e7:63:3c:87:f8:c2:d3:2e:44:b6:95:33:4e:0b:
                    03:c9:fa:23:7d:d7:b2:48:ec:db:67:91:b2:20:c6:
                    93:cd:c4:0e:d4:42:37:da:cc:eb:46:c4:eb:07:de:
                    86:73:0d:13:b9:cc:1a:fe:cf:14:ae:33:7e:cd:17:
                    7a:b1:6e:ae:80:b9:27:03:20:5f:ea:0b:95:92:42:
                    5a:81
                Exponent: 65537 (0x10001)
    Signature Algorithm: sha256WithRSAEncryption
    Signature Value:
        10:c5:17:7b:fc:f5:4c:5d:3a:a0:cf:b6:55:e1:bb:ee:69:8e:
        ef:93:7a:70:18:e7:fe:89:88:ab:a1:3f:e7:15:92:cf:83:6c:
        d6:67:f6:a8:b9:fc:6c:f0:5b:b1:95:b0:55:d3:29:92:2b:ba:
        e3:5c:cc:3b:7a:73:fd:1c:f7:1a:80:ca:2e:66:13:5c:e5:dd:
        f6:11:e1:7b:27:97:98:89:47:d6:c2:77:9a:c7:75:cd:81:41:
        19:4a:2b:ea:bd:01:83:4e:c4:6f:99:19:db:10:81:38:2e:2b:
        71:5d:53:b6:f7:34:bb:4b:08:c3:90:03:2b:1f:46:c9:33:b2:
        d9:83:15:be:ff:9d:42:69:0b:ee:5e:6a:63:42:97:c9:51:f6:
        b8:e5:ec:ac:0a:db:6f:fc:41:45:df:5a:a7:1c:c2:38:01:38:
        9c:b0:74:15:0c:aa:b6:d6:59:cd:9c:3c:90:d7:a4:9f:6a:a8:
        f9:b9:cb:5b:e8:da:8a:f2:8b:d1:c4:f5:cc:d8:c5:dc:30:d7:
        bf:59:9e:9b:55:20:6c:99:ce:25:61:57:a0:8d:2d:16:ef:ca:
        76:b7:87:ea:ca:a4:e6:0d:29:c2:80:3e:cd:cb:1f:e6:dc:39:
        f6:3d:26:f8:55:9e:c0:07:95:01:99:ca:e7:3f:6e:65:77:b2:
        5d:50:e9:8d
-----BEGIN CERTIFICATE-----
MIICrDCCAZQCAQQwDQYJKoZIhvcNAQELBQAwHDELMAkGA1UEBhMCSU4xDTALBgNV
BAMMBEdvdjEwHhcNMjIwNzA2MDgyNDQ4WhcNMjMwNzA2MDgyNDQ4WjAcMQswCQYD
VQQGEwJJTjENMAsGA1UEAwwER292MjCCASIwDQYJKoZIhvcNAQEBBQADggEPADCC
AQoCggEBAPLmBIj4xO46s6lP+L5dpAXYPifHAy1cqMt2lXfNdnpgkGL7e0q8exLd
Mi8qycH+ZmhrUKeA3+Lt69eS5HZibksYWIuSplejCcFbEGWR3SsbR4q/4vKE085h
eab06ng9g6ysbpltmSwAdGYyLsUgH51gJTcsghOER3RIQJYtc3dHjBKgZmhJ6Zu1
ZEpU/a+TXrLk7X1LYB3+gG8OryT3mG4u92Ag5P7hQNOggWhr7Y6gCuVmS+djPIf4
wtMuRLaVM04LA8n6I33Xskjs22eRsiDGk83EDtRCN9rM60bE6wfehnMNE7nMGv7P
FK4zfs0XerFuroC5JwMgX+oLlZJCWoECAwEAATANBgkqhkiG9w0BAQsFAAOCAQEA
EMUXe/z1TF06oM+2VeG77mmO75N6cBjn/omIq6E/5xWSz4Ns1mf2qLn8bPBbsZWw
VdMpkiu641zMO3pz/Rz3GoDKLmYTXOXd9hHheyeXmIlH1sJ3msd1zYFBGUor6r0B
g07Eb5kZ2xCBOC4rcV1Ttvc0u0sIw5ADKx9GyTOy2YMVvv+dQmkL7l5qY0KXyVH2
uOXsrArbb/xBRd9apxzCOAE4nLB0FQyqttZZzZw8kNekn2qo+bnLW+jaivKL0cT1
zNjF3DDXv1mem1UgbJnOJWFXoI0tFu/KdreH6sqk5g0pwoA+zcsf5tw59j0m+FWe
wAeVAZnK5z9uZXeyXVDpjQ==
-----END CERTIFICATE-----
