Certificate:
    Data:
        Version: 1 (0x0)
        Serial Number: 5 (0x5)
        Signature Algorithm: sha256WithRSAEncryption
        Issuer: C=IN, CN=Gov1
        Validity
            Not Before: Aug 15 08:00:00 2012 GMT
            Not After : Aug 15 09:00:00 2012 GMT
        Subject: C=IN, CN=Gov2
        Subject Public Key Info:
            Public Key Algorithm: rsaEncryption
                Public-Key: (2048 bit)
                Modulus:
                    00:a9:ee:96:d6:24:69:ec:b5:d6:d5:26:ff:c8:cc:
                    06:c1:e9:ef:ab:a3:aa:d8:66:5a:a4:1f:36:60:29:
                    b6:a6:74:b1:bf:3c:30:5e:16:81:b8:c9:48:fe:58:
                    2d:c5:d7:b6:d0:7c:5d:14:0d:75:d3:97:61:13:5c:
                    43:f3:1e:55:2d:b9:d8:a8:18:c7:aa:fb:54:eb:7e:
                    8c:66:38:37:08:31:bb:f4:16:5c:84:3c:86:73:44:
                    2b:80:cd:cf:27:ef:ff:99:24:23:24:43:41:3f:4a:
                    d6:e8:71:e3:b7:34:08:a1:e9:ab:64:84:db:d0:e9:
                    55:f6:f3:f5:5b:0f:36:0b:b5:86:9d:a0:76:20:da:
                    30:89:b3:77:0d:17:64:05:1e:a6:04:18:51:19:fd:
                    9e:cb:ba:b7:c1:5c:77:89:4a:70:34:6b:9a:93:c3:
                    da:ac:58:b0:77:ba:10:63:e6:cc:b0:df:48:09:99:
                    62:53:d8:ba:ec:bf:6e:9f:b4:7c:3d:2c:8e:e1:39:
                    15:84:28:c2:3b:26:28:31:00:31:4b:cf:e1:19:7a:
                    7b:2d:55:ad:a0:a6:43:37:b6:70:30:8a:69:00:5f:
                    f9:08:b9:53:86:68:e9:75:8c:8a:2f:8f:62:c2:b3:
                    ca:da:48:35:8d:b9:9a:7c:e0:a5:1d:6b:1d:33:55:
                    e1:67
                Exponent: 65537 (0x10001)
    Signature Algorithm: sha256WithRSAEncryption
    Signature Value:
        bb:7e:c6:1c:01:94:ac:9a:f4:0a:4a:72:0f:67:aa:8d:a3:db:
        d4:79:b5:e7:09:1a:61:89:61:c0:d6:0c:1e:41:9b:1c:ba:47:
        d6:b4:f2:a5:a7:98:36:b6:a4:bf:ba:dd:c6:57:2a:c0:07:80:
        3f:0b:9e:60:a8:79:d3:7c:7e:be:c8:55:fd:32:3d:86:07:4c:
        d8:02:0b:1c:b5:a5:9d:6f:c0:e9:f0:d5:95:85:88:82:ef:9a:
        28:a1:c8:2a:52:48:47:f0:65:7f:d1:b6:a2:d2:9c:c0:ac:8c:
        69:62:1c:10:22:5a:d6:17:eb:1a:43:c0:7e:43:6a:2d:96:31:
        b2:01:80:ae:f5:6a:01:f8:d1:ff:1c:51:b0:a6:e2:7c:73:02:
        6b:1a:65:8d:68:0d:cd:d6:18:3a:92:37:dd:ff:5e:89:a3:9a:
        c2:d3:39:fb:a8:27:d4:40:e7:25:37:c1:6d:a0:a7:43:8e:09:
        f1:72:4d:da:3a:aa:30:ec:7e:e1:5d:43:de:3f:73:3e:60:d2:
        43:2a:a6:50:b8:85:d4:3c:53:92:6a:93:69:54:bc:7e:47:fc:
        b0:5d:8d:6d:6e:1f:29:e9:c7:59:82:c8:94:aa:c2:19:e9:a8:
        ac:65:f7:1f:a0:db:98:49:cb:fa:e6:10:fb:f3:43:ee:00:e5:
        01:03:76:39
-----BEGIN CERTIFICATE-----
MIICrDCCAZQCAQUwDQYJKoZIhvcNAQELBQAwHDELMAkGA1UEBhMCSU4xDTALBgNV
BAMMBEdvdjEwHhcNMTIwODE1MDgwMDAwWhcNMTIwODE1MDkwMDAwWjAcMQswCQYD
VQQGEwJJTjENMAsGA1UEAwwER292MjCCASIwDQYJKoZIhvcNAQEBBQADggEPADCC
AQoCggEBAKnultYkaey11tUm/8jMBsHp76ujqthmWqQfNmAptqZ0sb88MF4WgbjJ
SP5YLcXXttB8XRQNddOXYRNcQ/MeVS252KgYx6r7VOt+jGY4Nwgxu/QWXIQ8hnNE
K4DNzyfv/5kkIyRDQT9K1uhx47c0CKHpq2SE29DpVfbz9VsPNgu1hp2gdiDaMImz
dw0XZAUepgQYURn9nsu6t8Fcd4lKcDRrmpPD2qxYsHe6EGPmzLDfSAmZYlPYuuy/
bp+0fD0sjuE5FYQowjsmKDEAMUvP4Rl6ey1VraCmQze2cDCKaQBf+Qi5U4Zo6XWM
ii+PYsKzytpINY25mnzgpR1rHTNV4WcCAwEAATANBgkqhkiG9w0BAQsFAAOCAQEA
u37GHAGUrJr0CkpyD2eqjaPb1Hm15wkaYYlhwNYMHkGbHLpH1rTypaeYNrakv7rd
xlcqwAeAPwueYKh503x+vshV/TI9hgdM2AILHLWlnW/A6fDVlYWIgu+aKKHIKlJI
R/Blf9G2otKcwKyMaWIcECJa1hfrGkPAfkNqLZYxsgGArvVqAfjR/xxRsKbifHMC
axpljWgNzdYYOpI33f9eiaOawtM5+6gn1EDnJTfBbaCnQ44J8XJN2jqqMOx+4V1D
3j9zPmDSQyqmULiF1DxTkmqTaVS8fkf8sF2NbW4fKenHWYLIlKrCGemorGX3H6Db
mEnL+uYQ+/ND7gDlAQN2OQ==
-----END CERTIFICATE-----
