Certificate:
    Data:
        Version: 1 (0x0)
        Serial Number: 6 (0x6)
        Signature Algorithm: sha256WithRSAEncryption
        Issuer: C=IN, O=V-Key Pte Ltd, CN=V-Key license signer Intermediate
        Validity
            Not Before: Aug 15 08:00:00 2012 GMT
            Not After : Aug 15 09:00:00 2012 GMT
        Subject: C=IN, O=V-Key Pte Ltd, CN=V-Key license signer Leaf
        Subject Public Key Info:
            Public Key Algorithm: rsaEncryption
                Public-Key: (2048 bit)
                Modulus:
                    00:ac:9b:60:af:f0:cb:8c:93:59:e5:b6:c4:dd:f6:
                    b9:7b:1a:b0:d7:82:d3:e7:f0:63:ec:e8:ef:8f:ec:
                    b0:b6:48:ba:e3:8a:42:08:fe:4a:11:15:ca:30:eb:
                    c1:9a:a9:f5:19:a8:13:0a:75:3b:0c:89:19:13:15:
                    dc:67:18:4a:bc:b6:0e:f3:b2:89:8d:a4:21:df:40:
                    7b:22:4d:67:1c:2e:45:81:30:81:5b:01:bf:50:fd:
                    4b:0a:b3:53:26:6d:48:5b:07:c4:e6:a5:4b:06:b5:
                    9d:5e:18:a4:68:79:13:f6:86:e7:19:6b:89:8a:b5:
                    20:59:48:bc:c2:da:ee:43:73:65:39:68:0e:9f:37:
                    55:8c:93:f0:45:a3:bf:2a:86:70:0f:3e:3b:7f:52:
                    e7:da:8b:03:2b:aa:3c:ab:22:6c:84:12:7b:60:e9:
                    82:81:90:e3:7f:3f:8b:e2:61:89:51:58:8f:73:5a:
                    62:9d:62:a9:ac:fe:44:b7:21:ee:d1:77:ff:00:3e:
                    3a:9c:9f:cb:4d:50:73:5d:5f:82:91:3a:f4:be:ee:
                    70:b3:84:5f:fc:64:ad:f5:74:9b:a9:36:97:c4:4b:
                    5e:a3:87:1a:47:8b:2a:0a:a5:4e:34:60:36:94:a6:
                    6c:0c:23:b6:3e:11:bf:bc:d4:2e:b2:94:9e:24:65:
                    33:99
                Exponent: 65537 (0x10001)
    Signature Algorithm: sha256WithRSAEncryption
    Signature Value:
        64:74:85:c9:ff:18:e6:3d:32:8c:62:09:b6:6f:73:7b:48:9f:
        21:4c:a9:52:1c:f2:db:5a:a8:96:0c:b7:7f:21:38:8b:5c:4e:
        35:f8:1c:0b:58:77:79:47:02:f0:fb:66:2e:c2:4e:33:ac:e4:
        0f:b2:ab:6c:7d:5e:17:30:47:34:bb:3c:37:97:76:46:35:0c:
        84:a2:0c:c0:ee:40:ba:d3:16:55:3f:d0:84:96:ee:b9:04:c0:
        e7:06:e5:7a:06:2e:1b:0a:82:d0:d6:dc:12:08:19:dc:31:b7:
        34:6c:e4:5b:06:86:f0:a2:0d:fe:17:eb:99:e3:df:f4:fc:3d:
        8e:6a:ef:8a:b2:51:cc:80:7c:a0:0b:2b:dd:86:1f:e3:da:4b:
        17:1f:80:79:2e:45:6c:6a:d6:d7:30:74:7a:e0:18:13:c9:e5:
        96:24:f3:df:c0:46:71:38:fa:5e:a3:3f:1a:e2:a1:4e:96:be:
        13:d2:1c:4e:42:5d:76:c0:d5:f9:b7:01:d1:6d:c2:99:65:9a:
        01:92:fc:3b:68:d4:8a:06:e9:15:f5:1f:1c:d8:66:ea:ca:d8:
        f1:52:a9:00:5c:57:d5:9a:a3:12:16:c5:04:bb:55:49:32:d0:
        63:84:e6:84:2f:70:68:1f:89:b5:ff:68:75:e7:ba:95:3f:1f:
        c9:4a:f2:bb
-----BEGIN CERTIFICATE-----
MIIDDjCCAfYCAQYwDQYJKoZIhvcNAQELBQAwUTELMAkGA1UEBhMCSU4xFjAUBgNV
BAoMDVYtS2V5IFB0ZSBMdGQxKjAoBgNVBAMMIVYtS2V5IGxpY2Vuc2Ugc2lnbmVy
IEludGVybWVkaWF0ZTAeFw0xMjA4MTUwODAwMDBaFw0xMjA4MTUwOTAwMDBaMEkx
CzAJBgNVBAYTAklOMRYwFAYDVQQKDA1WLUtleSBQdGUgTHRkMSIwIAYDVQQDDBlW
LUtleSBsaWNlbnNlIHNpZ25lciBMZWFmMIIBIjANBgkqhkiG9w0BAQEFAAOCAQ8A
MIIBCgKCAQEArJtgr/DLjJNZ5bbE3fa5exqw14LT5/Bj7Ojvj+ywtki644pCCP5K
ERXKMOvBmqn1GagTCnU7DIkZExXcZxhKvLYO87KJjaQh30B7Ik1nHC5FgTCBWwG/
UP1LCrNTJm1IWwfE5qVLBrWdXhikaHkT9obnGWuJirUgWUi8wtruQ3NlOWgOnzdV
jJPwRaO/KoZwDz47f1Ln2osDK6o8qyJshBJ7YOmCgZDjfz+L4mGJUViPc1pinWKp
rP5EtyHu0Xf/AD46nJ/LTVBzXV+CkTr0vu5ws4Rf/GSt9XSbqTaXxEteo4caR4sq
CqVONGA2lKZsDCO2PhG/vNQuspSeJGUzmQIDAQABMA0GCSqGSIb3DQEBCwUAA4IB
AQBkdIXJ/xjmPTKMYgm2b3N7SJ8hTKlSHPLbWqiWDLd/ITiLXE41+BwLWHd5RwLw
+2Yuwk4zrOQPsqtsfV4XMEc0uzw3l3ZGNQyEogzA7kC60xZVP9CElu65BMDnBuV6
Bi4bCoLQ1twSCBncMbc0bORbBobwog3+F+uZ49/0/D2Oau+KslHMgHygCyvdhh/j
2ksXH4B5LkVsatbXMHR64BgTyeWWJPPfwEZxOPpeoz8a4qFOlr4T0hxOQl12wNX5
twHRbcKZZZoBkvw7aNSKBukV9R8c2GbqytjxUqkAXFfVmqMSFsUEu1VJMtBjhOaE
L3BoH4m1/2h157qVPx/JSvK7
-----END CERTIFICATE-----
