Certificate:
    Data:
        Version: 1 (0x0)
        Serial Number: 7 (0x7)
        Signature Algorithm: sha256WithRSAEncryption
        Issuer: C=IN, O=V-Key Pte Ltd, CN=V-Key license signer Intermediate
        Validity
            Not Before: Jul  6 10:48:29 2022 GMT
            Not After : Jul  6 10:48:29 2023 GMT
        Subject: C=IN, O=V-Key Pte Ltd, CN=V-Key license signer Leaf
        Subject Public Key Info:
            Public Key Algorithm: rsaEncryption
                Public-Key: (2048 bit)
                Modulus:
                    00:83:c0:f5:f6:cb:ce:59:3e:73:0c:b0:d3:57:0d:
                    44:9a:7b:56:a9:9a:be:cb:75:09:0c:87:4a:15:77:
                    81:10:78:f3:23:a4:dd:99:92:f9:85:b8:47:8c:91:
                    6c:95:9e:e2:f2:1a:1f:1c:54:67:8c:3a:45:a8:4c:
                    05:28:1f:5d:c5:fa:90:c1:89:74:55:7d:72:c5:a9:
                    c3:a7:54:e7:d1:12:3d:07:28:08:32:c8:82:5b:1c:
                    3a:29:cf:b4:94:a5:47:eb:9a:d0:ae:2d:56:83:c4:
                    36:27:e5:69:20:be:38:aa:f2:a7:94:ea:79:cd:84:
                    ba:17:c6:c3:b3:9e:df:24:c8:99:3e:b6:98:69:f4:
                    50:aa:d1:63:51:55:87:16:c9:45:28:e8:51:cc:66:
                    95:9e:55:f0:ac:50:19:26:82:28:54:0a:fd:d0:a4:
                    de:73:d7:86:54:fa:41:39:07:7c:bf:f8:d4:2c:9d:
                    07:af:dc:6e:94:66:30:cc:59:85:af:4f:4a:fe:b8:
                    ef:0d:78:6a:60:a1:9a:0b:ec:af:fb:04:8b:79:d0:
                    bb:55:ad:51:02:30:28:9b:81:f4:34:3d:18:4b:37:
                    99:dd:21:c6:0b:9d:ed:34:85:4b:76:63:fd:7a:30:
                    1d:61:42:63:09:7b:64:c7:08:c8:c3:a4:90:ec:ed:
                    56:d5
                Exponent: 65537 (0x10001)
    Signature Algorithm: sha256WithRSAEncryption
    Signature Value:
        47:26:1c:c3:d0:4b:38:ac:f4:4a:1d:ac:09:91:b1:3d:fc:a9:
        01:fe:7a:4b:70:70:04:30:cc:81:e1:69:d7:14:ed:53:c6:2f:
        be:00:82:fe:c9:cf:57:ae:2e:2b:a5:35:89:05:a5:5a:12:74:
        b9:a5:b1:5c:d7:ef:6f:90:a5:27:91:e9:e1:4b:05:82:79:e6:
        a9:a1:ce:c4:b7:8d:4b:db:b5:d5:72:0e:02:d0:68:31:4f:fd:
        79:c3:d5:31:67:3c:f8:aa:6a:79:72:55:5d:d4:12:b9:db:80:
        1f:b4:3a:19:92:3f:4a:f4:fb:d4:67:72:53:08:ba:00:67:37:
        10:20:4c:38:85:00:4e:4e:f3:e6:1c:8a:58:2d:b2:27:24:bc:
        df:a7:22:b4:9c:ca:41:b6:26:f9:4f:0d:ea:0c:b9:29:0e:6e:
        b3:83:5b:d3:c8:df:b7:99:cf:f9:2f:32:57:22:e5:16:19:4f:
        26:b1:03:57:ca:21:11:bc:50:4f:c0:f2:39:6e:3a:18:63:7e:
        a6:65:f7:a6:f7:29:eb:bb:c7:85:c6:c5:60:0f:1b:eb:24:d6:
        44:c6:79:45:ea:21:3c:8f:66:c7:e4:73:19:d4:56:12:8a:2c:
        bb:c4:2f:71:71:cd:b0:3b:ff:f1:89:13:96:03:b0:fa:c3:73:
        ea:29:2d:ea
-----BEGIN CERTIFICATE-----
MIIDDjCCAfYCAQcwDQYJKoZIhvcNAQELBQAwUTELMAkGA1UEBhMCSU4xFjAUBgNV
BAoMDVYtS2V5IFB0ZSBMdGQxKjAoBgNVBAMMIVYtS2V5IGxpY2Vuc2Ugc2lnbmVy
IEludGVybWVkaWF0ZTAeFw0yMjA3MDYxMDQ4MjlaFw0yMzA3MDYxMDQ4MjlaMEkx
CzAJBgNVBAYTAklOMRYwFAYDVQQKDA1WLUtleSBQdGUgTHRkMSIwIAYDVQQDDBlW
LUtleSBsaWNlbnNlIHNpZ25lciBMZWFmMIIBIjANBgkqhkiG9w0BAQEFAAOCAQ8A
MIIBCgKCAQEAg8D19svOWT5zDLDTVw1EmntWqZq+y3UJDIdKFXeBEHjzI6TdmZL5
hbhHjJFslZ7i8hofHFRnjDpFqEwFKB9dxfqQwYl0VX1yxanDp1Tn0RI9BygIMsiC
Wxw6Kc+0lKVH65rQri1Wg8Q2J+VpIL44qvKnlOp5zYS6F8bDs57fJMiZPraYafRQ
qtFjUVWHFslFKOhRzGaVnlXwrFAZJoIoVAr90KTec9eGVPpBOQd8v/jULJ0Hr9xu
lGYwzFmFr09K/rjvDXhqYKGaC+yv+wSLedC7Va1RAjAom4H0ND0YSzeZ3SHGC53t
NIVLdmP9ejAdYUJjCXtkxwjIw6SQ7O1W1QIDAQABMA0GCSqGSIb3DQEBCwUAA4IB
AQBHJhzD0Es4rPRKHawJkbE9/KkB/npLcHAEMMyB4WnXFO1Txi++AIL+yc9Xri4r
pTWJBaVaEnS5pbFc1+9vkKUnkenhSwWCeeapoc7Et41L27XVcg4C0GgxT/15w9Ux
Zzz4qmp5clVd1BK524AftDoZkj9K9PvUZ3JTCLoAZzcQIEw4hQBOTvPmHIpYLbIn
JLzfpyK0nMpBtib5Tw3qDLkpDm6zg1vTyN+3mc/5LzJXIuUWGU8msQNXyiERvFBP
wPI5bjoYY36mZfem9ynru8eFxsVgDxvrJNZExnlF6iE8j2bH5HMZ1FYSiiy7xC9x
cc2wO//xiROWA7D6w3PqKS3q
-----END CERTIFICATE-----
