Certificate:
    Data:
        Version: 1 (0x0)
        Serial Number: 8 (0x8)
        Signature Algorithm: sha256WithRSAEncryption
        Issuer: C=IN, O=V-Key Pte Ltd, CN=V-Key license signer Intermediate
        Validity
            Not Before: Aug 15 08:00:00 2012 GMT
            Not After : Aug 15 09:00:00 2012 GMT
        Subject: C=IN, O=V-Key Pte Ltd, CN=V-Key license signer Leaf
        Subject Public Key Info:
            Public Key Algorithm: rsaEncryption
                Public-Key: (2048 bit)
                Modulus:
                    00:a7:fa:08:9e:e8:c3:bd:7e:ca:23:8d:f3:90:27:
                    f1:fb:16:10:52:ef:9d:53:36:a4:93:90:09:c8:f4:
                    f7:4b:0f:4f:cc:d3:af:f1:f7:f7:17:ba:67:59:52:
                    4c:8f:77:5c:aa:ce:7c:b7:72:ee:4b:9f:9e:df:b3:
                    b0:b4:f8:04:20:d3:e2:74:32:c8:eb:33:0e:36:2a:
                    de:dd:b0:4d:e8:04:df:70:bc:9d:af:e3:27:15:f4:
                    83:c5:c0:e2:06:e7:bc:4b:4d:b3:d1:58:82:e4:8e:
                    f7:7b:a4:0e:79:e8:be:8a:33:33:55:e5:1a:6c:17:
                    0f:c6:1e:f4:ac:3e:27:4e:eb:60:bc:37:98:4a:8b:
                    28:44:9a:44:0b:69:a6:5f:4c:2e:f0:b0:fd:8b:ea:
                    37:6e:67:47:a1:74:15:2b:38:cb:89:30:17:91:75:
                    6b:3e:1a:e1:d6:6a:87:5c:3a:89:eb:7f:07:9a:0f:
                    ae:95:65:a4:3b:13:b7:a8:34:21:77:80:ff:1d:d4:
                    68:af:6c:a8:58:05:7e:79:6f:c7:21:fa:3d:73:81:
                    50:bb:6f:b4:c5:99:6b:f8:b9:f6:68:3c:74:9c:74:
                    49:24:1f:04:0f:1f:4b:ad:22:ed:8c:a7:c6:f3:06:
                    9b:88:ba:12:95:f1:82:1c:9a:75:db:67:75:65:9f:
                    18:9f
                Exponent: 65537 (0x10001)
    Signature Algorithm: sha256WithRSAEncryption
    Signature Value:
        28:10:3d:ff:cc:85:75:28:cc:a9:21:0b:12:bb:3c:7b:15:7e:
        dc:3f:fc:75:b4:67:a1:31:aa:b1:8a:15:0e:a0:69:f8:00:38:
        f3:a8:58:c2:ca:a0:da:01:89:60:76:cf:d1:72:0d:34:ce:bb:
        ab:bc:1c:5e:9a:cb:4a:2b:24:50:d6:32:f1:d2:69:6c:eb:44:
        a6:9f:6f:da:ba:a1:84:55:78:ae:61:08:88:9a:bb:e9:01:53:
        8f:e1:5f:7a:32:fa:41:71:7c:ab:a1:46:65:b0:3a:47:41:5b:
        f8:c4:e6:49:29:2b:d7:2b:e2:7b:3f:3d:e5:e4:72:5c:70:c3:
        06:6c:e0:77:3c:c8:73:00:1b:b1:42:4b:dc:4e:bf:bd:8a:cc:
        d1:0d:01:3f:94:cb:83:ce:04:be:c7:56:0b:38:f5:9c:c2:68:
        2c:e1:b3:9a:ba:d5:a0:74:eb:cb:31:3b:68:3c:51:1b:a9:1d:
        24:e8:2c:ae:c4:58:4f:f1:9b:ab:0f:61:56:ce:e6:09:73:77:
        6b:6d:5c:2b:90:d5:84:32:5f:dd:32:0c:db:60:6a:81:2c:c8:
        e0:2b:a9:c9:a7:f3:ce:80:b3:8c:af:44:8f:ee:71:45:41:c0:
        80:b3:d6:45:9b:6f:93:6a:87:fc:de:b1:6d:1b:7d:97:6a:74:
        83:ca:b4:c2
-----BEGIN CERTIFICATE-----
MIIDDjCCAfYCAQgwDQYJKoZIhvcNAQELBQAwUTELMAkGA1UEBhMCSU4xFjAUBgNV
BAoMDVYtS2V5IFB0ZSBMdGQxKjAoBgNVBAMMIVYtS2V5IGxpY2Vuc2Ugc2lnbmVy
IEludGVybWVkaWF0ZTAeFw0xMjA4MTUwODAwMDBaFw0xMjA4MTUwOTAwMDBaMEkx
CzAJBgNVBAYTAklOMRYwFAYDVQQKDA1WLUtleSBQdGUgTHRkMSIwIAYDVQQDDBlW
LUtleSBsaWNlbnNlIHNpZ25lciBMZWFmMIIBIjANBgkqhkiG9w0BAQEFAAOCAQ8A
MIIBCgKCAQEAp/oInujDvX7KI43zkCfx+xYQUu+dUzakk5AJyPT3Sw9PzNOv8ff3
F7pnWVJMj3dcqs58t3LuS5+e37OwtPgEINPidDLI6zMONire3bBN6ATfcLydr+Mn
FfSDxcDiBue8S02z0ViC5I73e6QOeei+ijMzVeUabBcPxh70rD4nTutgvDeYSoso
RJpEC2mmX0wu8LD9i+o3bmdHoXQVKzjLiTAXkXVrPhrh1mqHXDqJ638Hmg+ulWWk
OxO3qDQhd4D/HdRor2yoWAV+eW/HIfo9c4FQu2+0xZlr+Ln2aDx0nHRJJB8EDx9L
rSLtjKfG8wabiLoSlfGCHJp122d1ZZ8YnwIDAQABMA0GCSqGSIb3DQEBCwUAA4IB
AQAoED3/zIV1KMypIQsSuzx7FX7cP/x1tGehMaqxihUOoGn4ADjzqFjCyqDaAYlg
ds/Rcg00zrurvBxemstKKyRQ1jLx0mls60Smn2/auqGEVXiuYQiImrvpAVOP4V96
MvpBcXyroUZlsDpHQVv4xOZJKSvXK+J7Pz3l5HJccMMGbOB3PMhzABuxQkvcTr+9
iszRDQE/lMuDzgS+x1YLOPWcwmgs4bOautWgdOvLMTtoPFEbqR0k6CyuxFhP8Zur
D2FWzuYJc3drbVwrkNWEMl/dMgzbYGqBLMjgK6nJp/POgLOMr0SP7nFFQcCAs9ZF
m2+Taof83rFtG32XanSDyrTC
-----END CERTIFICATE-----
