Certificate:
    Data:
        Version: 1 (0x0)
        Serial Number: 10 (0xa)
        Signature Algorithm: sha256WithRSAEncryption
        Issuer: C=IN, O=V-Key Pte Ltd, CN=V-Key license signer Intermediate
        Validity
            Not Before: Aug 15 08:00:00 2012 GMT
            Not After : Aug 15 09:00:00 2012 GMT
        Subject: C=IN, O=V-Key Pte Ltd, CN=V-Key license signer Leaf
        Subject Public Key Info:
            Public Key Algorithm: rsaEncryption
                Public-Key: (2048 bit)
                Modulus:
                    00:ad:d8:38:36:34:a4:8c:41:38:89:01:33:19:92:
                    8d:13:20:b9:ab:dc:17:bb:11:fc:5e:a6:3d:e8:d6:
                    38:d2:20:c4:d9:40:ee:51:22:f8:51:3c:90:fb:c7:
                    fd:29:fd:dd:27:33:8f:be:ff:21:68:a3:ad:e0:28:
                    87:79:80:21:1b:73:02:fd:fb:88:43:74:a2:a2:5b:
                    a2:90:f5:f3:2b:82:6f:27:ca:46:55:fc:e8:31:d5:
                    46:21:23:9c:cb:ee:83:d8:37:13:e7:2d:90:ca:f5:
                    21:a6:ac:ad:87:43:fd:90:0f:91:07:f7:9c:10:7e:
                    72:c7:9a:3d:ed:fc:02:c1:85:63:72:00:9f:10:71:
                    ce:b1:8a:96:54:b3:45:e8:9c:b1:23:4f:6c:c7:f8:
                    30:88:c4:25:e9:3f:d8:34:ab:0c:93:8f:e1:e2:2e:
                    39:a1:e7:a7:38:3d:4d:cd:61:11:2b:dc:f0:4e:4c:
                    06:b9:58:b0:97:ea:53:80:90:39:27:99:f6:f9:e5:
                    fe:09:7b:34:5f:73:e4:b0:36:39:88:57:66:48:78:
                    e2:66:5b:d9:f9:e8:83:fd:78:5f:9f:86:4a:2e:6e:
                    51:be:e6:09:46:37:29:c8:cb:d2:13:1b:dd:2c:3b:
                    f2:b2:01:8f:8d:bb:9d:fb:06:d5:31:c9:d5:70:e3:
                    b6:d9
                Exponent: 65537 (0x10001)
    Signature Algorithm: sha256WithRSAEncryption
    Signature Value:
        49:34:c3:72:31:7b:11:4f:62:40:01:51:22:92:d8:e1:ef:87:
        b8:88:ed:19:71:71:a0:a7:79:2f:03:d5:9e:a5:0a:34:5e:11:
        8c:8f:88:92:ac:29:42:72:7d:77:36:d3:91:81:4b:89:09:39:
        3f:ff:03:3f:f8:df:a8:ec:45:7e:99:b3:24:08:2e:a0:b9:34:
        41:e2:85:30:fb:a9:c3:43:ea:f0:0d:ca:96:db:98:fe:99:10:
        4a:dc:53:c4:91:0f:3d:64:c3:d5:3c:db:47:12:46:a9:fd:f7:
        18:05:6a:51:3b:b4:76:ef:ed:05:36:b0:96:9a:df:5b:7d:1f:
        f8:2c:1d:64:6c:81:1f:66:d4:ea:22:4a:ed:f5:64:56:6a:7b:
        a4:1d:ef:0b:a1:f8:d6:3f:e7:7d:00:0a:07:7f:11:b3:32:7b:
        b7:ea:51:e9:bc:05:89:c1:30:94:d8:05:6d:58:55:76:df:da:
        b0:8a:b1:90:d6:d8:0d:d6:cb:19:0e:f0:c3:3c:68:65:b8:3e:
        f8:b1:03:77:74:8a:44:25:df:6e:45:a6:97:87:14:cc:41:ba:
        95:52:e1:f6:65:a5:6e:f4:3f:d6:ab:49:93:9a:f1:be:ca:30:
        e8:70:7e:91:dd:8f:e0:e0:db:e7:e9:46:6c:a0:74:b9:d2:1f:
        80:c1:b0:19
-----BEGIN CERTIFICATE-----
MIIDDjCCAfYCAQowDQYJKoZIhvcNAQELBQAwUTELMAkGA1UEBhMCSU4xFjAUBgNV
BAoMDVYtS2V5IFB0ZSBMdGQxKjAoBgNVBAMMIVYtS2V5IGxpY2Vuc2Ugc2lnbmVy
IEludGVybWVkaWF0ZTAeFw0xMjA4MTUwODAwMDBaFw0xMjA4MTUwOTAwMDBaMEkx
CzAJBgNVBAYTAklOMRYwFAYDVQQKDA1WLUtleSBQdGUgTHRkMSIwIAYDVQQDDBlW
LUtleSBsaWNlbnNlIHNpZ25lciBMZWFmMIIBIjANBgkqhkiG9w0BAQEFAAOCAQ8A
MIIBCgKCAQEArdg4NjSkjEE4iQEzGZKNEyC5q9wXuxH8XqY96NY40iDE2UDuUSL4
UTyQ+8f9Kf3dJzOPvv8haKOt4CiHeYAhG3MC/fuIQ3SioluikPXzK4JvJ8pGVfzo
MdVGISOcy+6D2DcT5y2QyvUhpqyth0P9kA+RB/ecEH5yx5o97fwCwYVjcgCfEHHO
sYqWVLNF6JyxI09sx/gwiMQl6T/YNKsMk4/h4i45oeenOD1NzWERK9zwTkwGuViw
l+pTgJA5J5n2+eX+CXs0X3PksDY5iFdmSHjiZlvZ+eiD/Xhfn4ZKLm5RvuYJRjcp
yMvSExvdLDvysgGPjbud+wbVMcnVcOO22QIDAQABMA0GCSqGSIb3DQEBCwUAA4IB
AQBJNMNyMXsRT2JAAVEiktjh74e4iO0ZcXGgp3kvA9WepQo0XhGMj4iSrClCcn13
NtORgUuJCTk//wM/+N+o7EV+mbMkCC6guTRB4oUw+6nDQ+rwDcqW25j+mRBK3FPE
kQ89ZMPVPNtHEkap/fcYBWpRO7R27+0FNrCWmt9bfR/4LB1kbIEfZtTqIkrt9WRW
anukHe8LofjWP+d9AAoHfxGzMnu36lHpvAWJwTCU2AVtWFV239qwirGQ1tgN1ssZ
DvDDPGhluD74sQN3dIpEJd9uRaaXhxTMQbqVUuH2ZaVu9D/Wq0mTmvG+yjDocH6R
3Y/g4Nvn6UZsoHS50h+AwbAZ
-----END CERTIFICATE-----
