Certificate:
    Data:
        Version: 1 (0x0)
        Serial Number: 11 (0xb)
        Signature Algorithm: sha256WithRSAEncryption
        Issuer: C=IN, O=V-Key Pte Ltd, CN=V-Key license signer Intermediate
        Validity
            Not Before: Jul  6 11:58:01 2022 GMT
            Not After : Jul  6 11:58:01 2023 GMT
        Subject: C=IN, O=V-Key Pte Ltd, CN=V-Key license signer Leaf
        Subject Public Key Info:
            Public Key Algorithm: rsaEncryption
                Public-Key: (2048 bit)
                Modulus:
                    00:c6:ee:61:bf:2f:60:3b:aa:41:f1:ec:81:74:c9:
                    10:2c:08:14:e1:f8:53:27:aa:fe:c2:75:bd:d0:e8:
                    c1:de:72:ab:9d:4c:cd:8e:32:62:b7:ca:70:f1:33:
                    a1:49:d7:b6:3a:0a:4a:90:2e:75:c1:d2:e2:ef:35:
                    74:fb:ac:8c:76:55:2f:55:f6:cf:29:3b:e0:a1:62:
                    2a:64:22:33:7e:7b:0e:93:f6:4f:04:9e:21:36:5c:
                    52:5d:99:8b:97:66:45:22:33:33:fc:8d:c4:08:74:
                    df:96:76:0d:f9:f0:c3:db:11:76:a2:16:3f:3f:c5:
                    9d:e0:77:d1:03:2d:d1:99:09:7f:fe:3b:17:87:d6:
                    52:a6:96:f5:db:9a:0a:7f:b4:ec:bd:70:e5:c5:6c:
                    36:64:6e:96:3a:85:61:21:60:9a:4f:ed:e7:e6:7a:
                    99:dd:01:95:4e:ab:28:b7:c8:3c:00:bb:46:82:17:
                    cb:22:9b:78:2f:6b:b2:b5:87:8e:21:30:79:75:81:
                    87:11:d7:6d:dd:8d:4c:ce:87:8e:12:3a:5b:4e:9c:
                    77:74:15:de:74:63:01:9e:dd:6d:70:15:4f:97:ee:
                    38:2e:ae:d3:38:2f:f8:a1:74:5c:60:22:cb:f1:07:
                    8c:bf:bf:7b:b5:e5:56:c5:af:93:ea:b1:8d:2c:1e:
                    83:99
                Exponent: 65537 (0x10001)
    Signature Algorithm: sha256WithRSAEncryption
    Signature Value:
        87:c0:fe:98:3e:c1:0a:93:7c:4a:8c:51:78:e3:95:15:d0:cd:
        e5:8a:3a:d3:37:74:d4:85:20:74:68:57:e0:4c:b1:d5:7d:96:
        e3:fa:0c:d0:e3:73:37:ae:33:85:bc:0a:43:fd:51:cf:d5:44:
        78:df:5a:c0:d0:95:9c:1a:2e:e2:78:20:2f:64:b3:8f:62:27:
        a5:57:6f:50:50:3c:36:df:80:1d:27:d4:95:35:61:cb:d8:14:
        91:3b:72:54:18:5c:5a:ab:f2:14:e6:b9:23:12:83:6f:8a:1f:
        ba:4e:cd:bb:d0:2a:33:cd:d0:0a:41:35:d7:74:53:8e:7d:3f:
        de:4a:5b:52:50:0b:84:f8:4c:26:8b:dd:e9:56:92:de:b3:13:
        49:26:b4:32:5d:28:33:c7:1a:03:e3:46:09:9b:ff:e7:41:60:
        a9:ea:72:51:7c:ac:85:91:4e:f9:5c:75:df:85:8d:23:86:28:
        42:39:99:fd:4e:08:f5:09:e1:e7:70:03:8b:23:6b:d8:4d:10:
        18:4a:98:ed:8d:66:8c:f0:e3:8e:75:05:99:30:8e:78:b3:da:
        d9:d4:b1:dd:c1:19:b4:90:ab:59:d8:34:00:3d:58:a1:9f:53:
        3b:02:61:d3:c3:60:38:00:52:c7:aa:c3:1f:7a:1b:4b:52:38:
        e7:8a:57:32
-----BEGIN CERTIFICATE-----
MIIDDjCCAfYCAQswDQYJKoZIhvcNAQELBQAwUTELMAkGA1UEBhMCSU4xFjAUBgNV
BAoMDVYtS2V5IFB0ZSBMdGQxKjAoBgNVBAMMIVYtS2V5IGxpY2Vuc2Ugc2lnbmVy
IEludGVybWVkaWF0ZTAeFw0yMjA3MDYxMTU4MDFaFw0yMzA3MDYxMTU4MDFaMEkx
CzAJBgNVBAYTAklOMRYwFAYDVQQKDA1WLUtleSBQdGUgTHRkMSIwIAYDVQQDDBlW
LUtleSBsaWNlbnNlIHNpZ25lciBMZWFmMIIBIjANBgkqhkiG9w0BAQEFAAOCAQ8A
MIIBCgKCAQEAxu5hvy9gO6pB8eyBdMkQLAgU4fhTJ6r+wnW90OjB3nKrnUzNjjJi
t8pw8TOhSde2OgpKkC51wdLi7zV0+6yMdlUvVfbPKTvgoWIqZCIzfnsOk/ZPBJ4h
NlxSXZmLl2ZFIjMz/I3ECHTflnYN+fDD2xF2ohY/P8Wd4HfRAy3RmQl//jsXh9ZS
ppb125oKf7TsvXDlxWw2ZG6WOoVhIWCaT+3n5nqZ3QGVTqsot8g8ALtGghfLIpt4
L2uytYeOITB5dYGHEddt3Y1MzoeOEjpbTpx3dBXedGMBnt1tcBVPl+44Lq7TOC/4
oXRcYCLL8QeMv797teVWxa+T6rGNLB6DmQIDAQABMA0GCSqGSIb3DQEBCwUAA4IB
AQCHwP6YPsEKk3xKjFF445UV0M3lijrTN3TUhSB0aFfgTLHVfZbj+gzQ43M3rjOF
vApD/VHP1UR431rA0JWcGi7ieCAvZLOPYielV29QUDw234AdJ9SVNWHL2BSRO3JU
GFxaq/IU5rkjEoNvih+6Ts270CozzdAKQTXXdFOOfT/eSltSUAuE+Ewmi93pVpLe
sxNJJrQyXSgzxxoD40YJm//nQWCp6nJRfKyFkU75XHXfhY0jhihCOZn9Tgj1CeHn
cAOLI2vYTRAYSpjtjWaM8OOOdQWZMI54s9rZ1LHdwRm0kKtZ2DQAPVihn1M7AmHT
w2A4AFLHqsMfehtLUjjnilcy
-----END CERTIFICATE-----
