Certificate:
    Data:
        Version: 3 (0x2)
        Serial Number: 12 (0xc)
        Signature Algorithm: sha256WithRSAEncryption
        Issuer: C=IN, CN=Gov0
        Validity
            Not Before: Jul  6 08:24:45 2022 GMT
            Not After : Jul  5 08:24:45 2025 GMT
        Subject: C=IN, CN=Gov0
        Subject Public Key Info:
            Public Key Algorithm: rsaEncryption
                Public-Key: (2048 bit)
                Modulus:
                    00:e2:8a:ee:79:88:07:4f:f5:fe:e9:a5:b6:f5:17:
                    7e:be:40:c2:a0:c9:99:bc:cf:cf:68:0b:1e:f3:fd:
                    92:b9:9b:a5:09:6e:7d:cb:d4:72:49:42:92:57:c6:
                    b2:a1:e0:de:58:3d:df:9b:a0:0f:47:34:10:06:c1:
                    44:5b:f8:ba:ee:2c:c4:58:d5:ff:a5:a7:0c:89:5b:
                    dc:f6:72:b7:1e:4e:5b:58:20:b3:2b:35:d0:c3:17:
                    a2:61:a6:21:2b:ea:7c:0d:16:24:75:6f:62:3a:89:
                    c9:ec:db:ec:69:01:71:43:81:74:b1:b6:40:73:ef:
                    80:11:b3:79:8e:4f:4f:98:70:3d:7a:d8:70:9a:75:
                    70:7d:90:84:24:d0:b0:c5:fb:9e:70:d3:d5:3f:3e:
                    07:97:5b:34:74:dc:48:b3:f9:ad:f5:ed:39:2d:6e:
                    2b:6b:1a:16:c6:8e:ac:87:9d:bc:fa:82:87:64:20:
                    6c:72:01:d0:4f:cb:d2:eb:12:15:40:82:d7:b9:37:
                    28:83:9b:24:23:97:ef:91:dc:5b:46:55:0e:be:c5:
                    56:e8:75:76:f3:b8:6d:1d:7f:16:f6:13:0d:39:c3:
                    50:04:a0:ee:5b:6f:5f:40:f8:d6:81:9d:70:45:b9:
                    ba:e8:ed:bc:b1:9b:e8:11:b7:f0:ee:9f:a6:46:b5:
                    28:bd
                Exponent: 65537 (0x10001)
        X509v3 extensions:
            X509v3 Basic Constraints: critical
                CA:TRUE
            X509v3 Key Usage: critical
                Certificate Sign
            X509v3 Subject Key Identifier: 
                64:11:DD:3F:BA:AF:DD:D8:BA:CB:47:61:EF:B5:3A:DD:E2:63:79:0B
    Signature Algorithm: sha256WithRSAEncryption
    Signature Value:
        b7:b5:a3:9a:13:23:d5:61:a8:d7:aa:8b:03:e8:70:72:77:e7:
        3d:6d:59:e1:7e:ab:14:26:6b:48:72:ce:b7:c0:25:28:5e:40:
        69:dd:e1:bc:03:0a:b8:2e:0b:7d:43:75:d0:5a:ba:d7:80:2a:
        f9:50:84:75:1d:46:f0:c8:78:18:90:c4:ca:24:e8:6d:7e:dc:
        1d:a4:ab:83:61:8e:36:dc:97:1e:8f:20:ed:69:5d:fd:d1:40:
        45:c6:73:fc:c1:d3:c0:07:cd:76:5e:a6:c5:8d:56:01:a4:68:
        af:ef:f6:07:05:09:40:db:38:2e:6e:8f:bc:89:3a:6d:6d:f6:
        cb:44:8d:e5:15:c0:de:4b:06:5f:b6:30:11:cb:fb:09:ce:3e:
        57:54:5d:8a:44:7d:44:42:64:68:c9:ab:ec:8f:ed:27:62:1b:
        06:eb:8b:a2:73:c2:89:1c:47:e3:45:1d:23:95:0a:55:a3:c4:
        45:6a:37:d7:39:af:b3:03:f2:61:22:8d:e9:31:76:87:a5:21:
        0f:1b:a5:23:d6:dd:e5:59:df:07:d3:e5:57:95:b2:64:28:10:
        01:f9:d4:d0:55:71:f3:e1:10:57:81:83:8c:97:87:df:6e:5e:
        e6:c4:e0:c3:24:cf:cc:73:7b:5e:68:c2:a3:88:a9:c2:81:52:
        7f:11:c1:0a
-----BEGIN CERTIFICATE-----
MIIC9TCCAd2gAwIBAgIBDDANBgkqhkiG9w0BAQsFADAcMQswCQYDVQQGEwJJTjEN
MAsGA1UEAwwER292MDAeFw0yMjA3MDYwODI0NDVaFw0yNTA3MDUwODI0NDVaMBwx
CzAJBgNVBAYTAklOMQ0wCwYDVQQDDARHb3YwMIIBIjANBgkqhkiG9w0BAQEFAAOC
AQ8AMIIBCgKCAQEA4orueYgHT/X+6aW29Rd+vkDCoMmZvM/PaAse8/2SuZulCW59
y9RySUKSV8ayoeDeWD3fm6APRzQQBsFEW/i67izEWNX/pacMiVvc9nK3Hk5bWCCz
KzXQwxeiYaYhK+p8DRYkdW9iOonJ7NvsaQFxQ4F0sbZAc++AEbN5jk9PmHA9ethw
mnVwfZCEJNCwxfuecNPVPz4Hl1s0dNxIs/mt9e05LW4raxoWxo6sh528+oKHZCBs
cgHQT8vS6xIVQILXuTcog5skI5fvkdxbRlUOvsVW6HV287htHX8W9hMNOcNQBKDu
W29fQPjWgZ1wRbm66O28sZvoEbfw7p+mRrUovQIDAQABo0IwQDAPBgNVHRMBAf8E
BTADAQH/MA4GA1UdDwEB/wQEAwICBDAdBgNVHQ4EFgQUZBHdP7qv3di6y0dh77U6
3eJjeQswDQYJKoZIhvcNAQELBQADggEBALe1o5oTI9VhqNeqiwPocHJ35z1tWeF+
qxQma0hyzrfAJSheQGnd4bwDCrguC31DddBauteAKvlQhHUdRvDIeBiQxMok6G1+
3B2kq4Nhjjbclx6PIO1pXf3RQEXGc/zB08AHzXZepsWNVgGkaK/v9gcFCUDbOC5u
j7yJOm1t9stEjeUVwN5LBl+2MBHL+wnOPldUXYpEfURCZGjJq+yP7SdiGwbri6Jz
wokcR+NFHSOVClWjxEVqN9c5r7MD8mEijekxdoelIQ8bpSPW3eVZ3wfT5VeVsmQo
EAH51NBVcfPhEFeBg4yXh99uXubE4MMkz8xze15owqOIqcKBUn8RwQo=
-----END CERTIFICATE-----
