Certificate:
    Data:
        Version: 3 (0x2)
        Serial Number: 13 (0xd)
        Signature Algorithm: sha256WithRSAEncryption
        Issuer: C=IN, CN=Gov0
        Validity
            Not Before: Jul  6 08:24:47 2022 GMT
            Not After : Jul  5 08:24:47 2024 GMT
        Subject: C=IN, CN=Gov1
        Subject Public Key Info:
            Public Key Algorithm: rsaEncryption
                Public-Key: (2048 bit)
                Modulus:
                    00:aa:d5:7f:60:a6:37:cb:60:5e:8d:a6:9b:d8:e1:
                    c1:f6:bd:3f:ca:55:c0:13:85:76:f1:1d:45:34:97:
                    3c:5b:92:41:6f:33:46:de:65:02:96:cd:5b:46:9e:
                    5a:be:de:f8:d7:e8:f6:5d:0e:56:d1:93:51:42:f1:
                    06:a9:ac:3e:23:2c:a5:fb:dd:be:75:69:c5:48:36:
                    bb:5e:33:38:d6:f6:62:12:38:50:a0:60:5d:95:5a:
                    0f:80:11:28:54:9a:6c:ac:d8:e0:15:bc:5d:6b:d9:
                    ee:33:06:13:77:fe:bd:7c:57:b0:b8:28:c5:ba:39:
                    c4:9a:fe:e8:e1:97:5c:c1:cb:75:f5:63:ad:44:83:
                    44:e2:8e:f7:a4:b0:02:41:3c:19:c0:f3:68:5d:84:
                    39:6d:60:85:ea:b1:04:df:70:e2:0e:85:ed:d3:b9:
                    ef:0c:d7:56:e4:6d:ab:d5:14:ff:67:73:b1:24:a6:
                    af:10:a9:47:1a:e3:81:83:78:73:a1:ff:86:60:e7:
                    94:2c:7c:b4:f8:0d:0c:92:3f:2c:60:bf:f6:66:bb:
                    ce:37:54:74:03:eb:dd:3e:ed:f2:df:81:ef:71:25:
                    c3:fa:3a:07:d7:06:56:b0:0e:e4:0a:77:bf:39:43:
                    e6:fd:95:01:1c:74:ed:92:06:d9:76:bc:25:d9:50:
                    2f:a5
                Exponent: 65537 (0x10001)
        X509v3 extensions:
            X509v3 Basic Constraints: critical
                CA:TRUE
            X509v3 Key Usage: critical
                Certificate Sign
            X509v3 Subject Key Identifier: 
                85:E8:B7:56:9A:95:61:6A:2E:5E:AE:D3:ED:2B:CA:5C:D5:34:A0:95
            X509v3 Authority Key Identifier: 
                64:11:DD:3F:BA:AF:DD:D8:BA:CB:47:61:EF:B5:3A:DD:E2:63:79:0B
    Signature Algorithm: sha256WithRSAEncryption
    Signature Value:
        3c:10:f8:0a:5e:72:d6:c2:40:fb:8d:27:2e:03:05:dd:74:bb:
        4a:41:be:a4:1a:d0:10:d3:4a:0d:fa:21:71:d0:5c:9a:d8:d2:
        23:39:ce:4f:e0:bb:f2:01:64:22:72:18:5a:c4:80:dc:42:88:
        e6:91:36:f9:f0:55:04:40:82:0a:56:38:54:47:a1:59:f2:3a:
        ac:3f:78:9f:36:9d:0a:73:cc:81:f7:c1:04:5b:02:1f:2a:47:
        e4:5d:08:82:50:61:d5:b1:00:01:6f:09:c0:1f:6c:2a:ef:14:
        eb:4c:03:35:34:0f:a6:a9:74:4d:ef:9f:da:6b:76:e6:5d:97:
        61:cc:ea:19:0c:31:a8:13:93:ae:05:7f:8f:0c:50:50:c4:e8:
        13:47:29:88:13:9e:e3:69:af:9e:1c:80:13:d1:36:85:70:8e:
        63:a7:1d:eb:c8:b1:0b:12:21:15:25:45:7f:05:47:5f:e1:c8:
        5c:21:36:1a:7f:83:5a:70:03:0e:28:7a:5c:63:d4:e5:6e:e7:
        19:01:85:62:65:01:4d:a7:ac:dd:16:8d:3f:1a:8d:98:74:9a:
        2e:2c:e2:28:0f:59:a2:76:95:06:bd:31:ed:71:40:f8:04:75:
        06:89:d9:bd:95:eb:f3:ff:3b:fc:b8:04:d5:37:65:8d:d6:bb:
        38:f8:80:64
-----BEGIN CERTIFICATE-----
MIIDFjCCAf6gAwIBAgIBDTANBgkqhkiG9w0BAQsFADAcMQswCQYDVQQGEwJJTjEN
MAsGA1UEAwwER292MDAeFw0yMjA3MDYwODI0NDdaFw0yNDA3MDUwODI0NDdaMBwx
CzAJBgNVBAYTAklOMQ0wCwYDVQQDDARHb3YxMIIBIjANBgkqhkiG9w0BAQEFAAOC
AQ8AMIIBCgKCAQEAqtV/YKY3y2Bejaab2OHB9r0/ylXAE4V28R1FNJc8W5JBbzNG
3mUCls1bRp5avt741+j2XQ5W0ZNRQvEGqaw+Iyyl+92+dWnFSDa7XjM41vZiEjhQ
oGBdlVoPgBEoVJpsrNjgFbxda9nuMwYTd/69fFewuCjFujnEmv7o4Zdcwct19WOt
RINE4o73pLACQTwZwPNoXYQ5bWCF6rEE33DiDoXt07nvDNdW5G2r1RT/Z3OxJKav
EKlHGuOBg3hzof+GYOeULHy0+A0Mkj8sYL/2ZrvON1R0A+vdPu3y34HvcSXD+joH
1wZWsA7kCne/OUPm/ZUBHHTtkgbZdrwl2VAvpQIDAQABo2MwYTAPBgNVHRMBAf8E
BTADAQH/MA4GA1UdDwEB/wQEAwICBDAdBgNVHQ4EFgQUhei3VpqVYWouXq7T7SvK
XNU0oJUwHwYDVR0jBBgwFoAUZBHdP7qv3di6y0dh77U63eJjeQswDQYJKoZIhvcN
AQELBQADggEBADwQ+ApectbCQPuNJy4DBd10u0pBvqQa0BDTSg36IXHQXJrY0iM5
zk/gu/IBZCJyGFrEgNxCiOaRNvnwVQRAggpWOFRHoVnyOqw/eJ82nQpzzIH3wQRb
Ah8qR+RdCIJQYdWxAAFvCcAfbCrvFOtMAzU0D6apdE3vn9prduZdl2HM6hkMMagT
k64Ff48MUFDE6BNHKYgTnuNpr54cgBPRNoVwjmOnHevIsQsSIRUlRX8FR1/hyFwh
Nhp/g1pwAw4oelxj1OVu5xkBhWJlAU2nrN0WjT8ajZh0mi4s4igPWaJ2lQa9Me1x
QPgEdQaJ2b2V6/P/O/y4BNU3ZY3Wuzj4gGQ=
-----END CERTIFICATE-----
