Certificate:
    Data:
        Version: 3 (0x2)
        Serial Number: 14 (0xe)
        Signature Algorithm: sha256WithRSAEncryption
        Issuer: C=IN, CN=Gov0
        Validity
            Not Before: Jul  6 08:38:06 2022 GMT
            Not After : Jul  5 08:38:06 2025 GMT
        Subject: C=IN, CN=Gov0
        Subject Public Key Info:
            Public Key Algorithm: rsaEncryption
                Public-Key: (2048 bit)
                Modulus:
                    00:9d:79:ff:e1:43:e0:dc:b0:3b:38:6a:31:37:ab:
                    28:56:b2:cd:8a:ac:67:70:34:82:71:ca:9c:7f:78:
                    d1:5d:59:0a:52:93:62:cb:a2:a7:98:a2:71:e4:f9:
                    43:08:80:3f:ef:c5:2a:23:0a:ec:0e:15:32:7a:a4:
                    5f:e0:bd:00:18:0e:58:f1:53:c7:eb:ff:0a:da:a4:
                    ff:06:97:77:3d:ed:a7:f9:58:cb:65:5a:ba:28:18:
                    6a:55:d5:3d:b5:c2:0c:e0:27:87:e9:df:ab:1b:59:
                    56:2c:5c:a7:89:81:78:d1:ae:49:cf:32:ac:8c:ad:
                    63:f9:6e:ee:a7:12:02:12:07:d7:a9:f7:6e:0c:75:
                    b0:c8:c8:ba:fa:60:2a:9b:a6:f3:54:27:6e:55:6a:
                    e7:15:99:22:f5:86:41:44:14:c2:6e:16:68:05:f8:
                    f7:3a:af:cf:8b:76:f6:ca:d2:8b:3b:3d:03:4b:1d:
                    d5:e3:48:62:bc:dd:67:d0:b5:2b:f6:02:54:85:72:
                    83:69:2b:55:7a:ed:ee:3b:f0:24:99:8b:0e:a8:a2:
                    e2:41:25:b4:05:97:67:be:03:b1:5c:b7:ea:45:57:
                    f5:a2:f5:db:d9:a1:7a:db:1a:de:de:34:93:6f:bc:
                    0d:21:14:5e:4b:e9:11:10:05:10:0c:4d:77:a1:3a:
                    de:75
                Exponent: 65537 (0x10001)
        X509v3 extensions:
            X509v3 Basic Constraints: critical
                CA:TRUE
            X509v3 Key Usage: critical
                Certificate Sign
            X509v3 Subject Key Identifier: 
                FF:17:2C:47:DA:31:FA:39:A3:E4:B1:D7:51:4F:48:10:3D:C4:9C:C7
    Signature Algorithm: sha256WithRSAEncryption
    Signature Value:
        23:b3:50:01:b8:c2:ae:0f:c2:9d:2f:44:24:e7:6e:10:9a:1f:
        9d:dd:31:64:4d:f0:48:72:da:5a:2b:78:37:fd:52:94:1d:8a:
        f8:eb:7d:ed:3c:73:6a:1a:9e:98:2d:d7:2b:a2:7f:c7:06:bc:
        27:ea:be:07:5d:7e:c0:b8:3b:ca:19:72:5b:07:d6:d1:72:e6:
        8c:97:40:a3:9c:e8:ee:2c:15:f9:a8:39:5e:66:44:22:23:21:
        b3:44:e0:e5:6a:60:2a:cb:8e:1a:1f:bd:f2:e6:b0:1d:bc:c8:
        fb:ad:8b:26:04:c6:a6:c8:62:97:0e:5a:f9:88:72:1e:47:fb:
        db:96:6e:d6:6b:69:f1:6d:df:82:19:29:3e:d9:a5:d4:9d:92:
        6c:b0:77:d5:9a:8f:89:81:17:50:3e:8a:fd:7d:44:1e:fb:bd:
        17:da:20:18:84:33:a0:f1:c3:d7:06:6c:2a:e0:dc:7e:66:85:
        52:d3:29:6e:01:bc:a2:a4:08:d4:22:7c:8c:d8:80:68:b8:98:
        96:aa:f6:c1:26:b7:f8:a3:5b:d1:48:d6:ca:15:92:18:25:20:
        db:43:2c:73:d2:04:14:9a:42:23:88:6a:b0:23:60:18:fc:6f:
        05:5f:a4:08:1c:98:cd:01:21:80:64:2a:86:49:b0:63:f6:13:
        62:93:94:73
-----BEGIN CERTIFICATE-----
MIIC9TCCAd2gAwIBAgIBDjANBgkqhkiG9w0BAQsFADAcMQswCQYDVQQGEwJJTjEN
MAsGA1UEAwwER292MDAeFw0yMjA3MDYwODM4MDZaFw0yNTA3MDUwODM4MDZaMBwx
CzAJBgNVBAYTAklOMQ0wCwYDVQQDDARHb3YwMIIBIjANBgkqhkiG9w0BAQEFAAOC
AQ8AMIIBCgKCAQEAnXn/4UPg3LA7OGoxN6soVrLNiqxncDSCccqcf3jRXVkKUpNi
y6KnmKJx5PlDCIA/78UqIwrsDhUyeqRf4L0AGA5Y8VPH6/8K2qT/Bpd3Pe2n+VjL
ZVq6KBhqVdU9tcIM4CeH6d+rG1lWLFyniYF40a5JzzKsjK1j+W7upxICEgfXqfdu
DHWwyMi6+mAqm6bzVCduVWrnFZki9YZBRBTCbhZoBfj3Oq/Pi3b2ytKLOz0DSx3V
40hivN1n0LUr9gJUhXKDaStVeu3uO/AkmYsOqKLiQSW0BZdnvgOxXLfqRVf1ovXb
2aF62xre3jSTb7wNIRReS+kREAUQDE13oTredQIDAQABo0IwQDAPBgNVHRMBAf8E
BTADAQH/MA4GA1UdDwEB/wQEAwICBDAdBgNVHQ4EFgQU/xcsR9ox+jmj5LHXUU9I
ED3EnMcwDQYJKoZIhvcNAQELBQADggEBACOzUAG4wq4Pwp0vRCTnbhCaH53dMWRN
8Ehy2loreDf9UpQdivjrfe08c2oanpgt1yuif8cGvCfqvgddfsC4O8oZclsH1tFy
5oyXQKOc6O4sFfmoOV5mRCIjIbNE4OVqYCrLjhofvfLmsB28yPutiyYExqbIYpcO
WvmIch5H+9uWbtZrafFt34IZKT7ZpdSdkmywd9Waj4mBF1A+iv19RB77vRfaIBiE
M6Dxw9cGbCrg3H5mhVLTKW4BvKKkCNQifIzYgGi4mJaq9sEmt/ijW9FI1soVkhgl
INtDLHPSBBSaQiOIarAjYBj8bwVfpAgcmM0BIYBkKoZJsGP2E2KTlHM=
-----END CERTIFICATE-----
