Certificate:
    Data:
        Version: 3 (0x2)
        Serial Number: 15 (0xf)
        Signature Algorithm: sha256WithRSAEncryption
        Issuer: C=IN, CN=Gov0
        Validity
            Not Before: Aug 15 08:00:00 2012 GMT
            Not After : Aug 15 09:00:00 2012 GMT
        Subject: C=IN, CN=Gov1
        Subject Public Key Info:
            Public Key Algorithm: rsaEncryption
                Public-Key: (2048 bit)
                Modulus:
                    00:bf:30:e9:8c:c6:5f:21:94:f2:19:ee:70:bf:a4:
                    ee:6a:7c:62:a2:84:93:bf:75:c4:26:8b:30:e2:85:
                    e2:47:e3:27:89:10:f1:57:1f:fa:fc:ff:bf:38:fa:
                    60:d0:bd:bc:ba:1f:85:da:8d:2c:13:5a:04:a0:43:
                    bf:fc:e6:df:6b:7d:72:c4:57:59:28:26:df:f1:e1:
                    f1:f0:84:04:7b:bf:4a:15:64:86:07:18:f2:e3:cd:
                    d7:75:08:30:cc:ed:a2:66:aa:7a:d4:6b:df:df:90:
                    da:60:11:7c:48:b3:b1:8d:d3:87:5c:b5:a1:ae:32:
                    73:7d:a9:10:6b:4e:22:df:c1:2b:d6:49:85:fa:1c:
                    c9:03:8b:83:40:1e:9b:e6:ad:a8:86:10:ee:f9:10:
                    52:33:f9:2e:1e:b8:0d:ba:56:92:b6:eb:50:6b:a1:
                    57:ff:77:4a:57:cf:ce:f2:0d:61:ba:61:7e:65:9d:
                    92:25:56:40:03:ee:38:10:30:da:f7:4d:45:8b:59:
                    39:3b:27:d0:65:47:c0:ee:c8:de:35:1a:f1:74:dc:
                    96:8c:d8:0b:1e:5d:c3:85:c0:42:e6:f5:85:a5:3a:
                    f8:c2:9e:84:70:8b:fa:72:0b:45:18:b6:fe:5e:0e:
                    8b:1b:5d:80:89:f4:01:57:11:07:1f:ef:5c:00:b9:
                    ed:57
                Exponent: 65537 (0x10001)
        X509v3 extensions:
            X509v3 Basic Constraints: critical
                CA:TRUE
            X509v3 Key Usage: critical
                Certificate Sign
            X509v3 Subject Key Identifier: 
                38:3B:B2:54:87:7F:71:53:20:80:C7:15:3C:E6:8F:E7:70:13:A0:16
            X509v3 Authority Key Identifier: 
                FF:17:2C:47:DA:31:FA:39:A3:E4:B1:D7:51:4F:48:10:3D:C4:9C:C7
    Signature Algorithm: sha256WithRSAEncryption
    Signature Value:
        76:72:38:9c:6a:e7:0a:7c:1c:84:eb:d1:a5:5a:57:ef:3e:4e:
        e4:ff:af:39:3f:27:57:47:fb:3d:2f:f2:84:d2:a8:5c:79:b0:
        9c:e7:c4:ca:e7:85:ec:d0:73:ff:c9:6c:86:c8:43:2c:86:f1:
        72:5d:bd:48:06:e6:36:61:c2:46:15:6a:49:20:f0:9a:f2:6f:
        3e:d9:ef:d3:00:ff:46:ec:f0:25:2e:48:4c:a0:7c:15:2f:ac:
        c8:54:fa:35:62:d7:b1:b5:43:64:5e:ba:a8:97:61:fe:f3:29:
        ba:f4:ff:7a:1c:38:12:ad:77:d0:8b:5d:a8:7e:6d:9c:2c:d8:
        f4:d1:a3:2f:b2:71:ad:54:9b:7e:5a:56:c6:22:02:b3:9e:f3:
        c5:d0:c0:dc:dc:5e:d5:cd:31:03:57:95:3e:b4:4d:ca:20:15:
        6c:f5:b0:dc:88:95:80:e2:2d:d5:91:b4:64:7d:51:63:0f:5b:
        21:a8:7a:9f:b2:28:f6:a5:b6:99:55:b8:5a:a2:30:7f:61:4d:
        bf:ff:b3:b5:f7:46:97:3f:bb:e9:d5:aa:42:69:ed:ad:1b:f1:
        1d:92:ea:d0:5f:81:38:be:bb:af:ef:e1:7e:0a:58:7f:e2:78:
        7b:8a:98:17:de:62:d3:72:30:40:8b:e9:be:31:61:44:e6:ec:
        b3:c5:6d:95
-----BEGIN CERTIFICATE-----
MIIDFjCCAf6gAwIBAgIBDzANBgkqhkiG9w0BAQsFADAcMQswCQYDVQQGEwJJTjEN
MAsGA1UEAwwER292MDAeFw0xMjA4MTUwODAwMDBaFw0xMjA4MTUwOTAwMDBaMBwx
CzAJBgNVBAYTAklOMQ0wCwYDVQQDDARHb3YxMIIBIjANBgkqhkiG9w0BAQEFAAOC
AQ8AMIIBCgKCAQEAvzDpjMZfIZTyGe5wv6TuanxiooSTv3XEJosw4oXiR+MniRDx
Vx/6/P+/OPpg0L28uh+F2o0sE1oEoEO//Obfa31yxFdZKCbf8eHx8IQEe79KFWSG
Bxjy483XdQgwzO2iZqp61Gvf35DaYBF8SLOxjdOHXLWhrjJzfakQa04i38Er1kmF
+hzJA4uDQB6b5q2ohhDu+RBSM/kuHrgNulaStutQa6FX/3dKV8/O8g1humF+ZZ2S
JVZAA+44EDDa901Fi1k5OyfQZUfA7sjeNRrxdNyWjNgLHl3DhcBC5vWFpTr4wp6E
cIv6cgtFGLb+Xg6LG12AifQBVxEHH+9cALntVwIDAQABo2MwYTAPBgNVHRMBAf8E
BTADAQH/MA4GA1UdDwEB/wQEAwICBDAdBgNVHQ4EFgQUODuyVId/cVMggMcVPOaP
53AToBYwHwYDVR0jBBgwFoAU/xcsR9ox+jmj5LHXUU9IED3EnMcwDQYJKoZIhvcN
AQELBQADggEBAHZyOJxq5wp8HITr0aVaV+8+TuT/rzk/J1dH+z0v8oTSqFx5sJzn
xMrnhezQc//JbIbIQyyG8XJdvUgG5jZhwkYVakkg8Jrybz7Z79MA/0bs8CUuSEyg
fBUvrMhU+jVi17G1Q2ReuqiXYf7zKbr0/3ocOBKtd9CLXah+bZws2PTRoy+yca1U
m35aVsYiArOe88XQwNzcXtXNMQNXlT60TcogFWz1sNyIlYDiLdWRtGR9UWMPWyGo
ep+yKPaltplVuFqiMH9hTb//s7X3Rpc/u+nVqkJp7a0b8R2S6tBfgTi+u6/v4X4K
WH/ieHuKmBfeYtNyMECL6b4xYUTm7LPFbZU=
-----END CERTIFICATE-----
