Certificate:
    Data:
        Version: 3 (0x2)
        Serial Number: 16 (0x10)
        Signature Algorithm: sha256WithRSAEncryption
        Issuer: C=IN, O=V-Key Pte Ltd, CN=V-Key Service Root CA Root
        Validity
            Not Before: Jul  6 10:46:16 2022 GMT
            Not After : Jul  5 10:46:16 2025 GMT
        Subject: C=IN, O=V-Key Pte Ltd, CN=V-Key Service Root CA Root
        Subject Public Key Info:
            Public Key Algorithm: rsaEncryption
                Public-Key: (2048 bit)
                Modulus:
                    00:b8:38:30:2e:ec:2f:11:5f:6e:7a:b5:39:d1:ce:
                    cb:6a:68:d7:94:b2:8e:0f:59:88:18:15:cd:80:58:
                    fd:bb:b7:4a:e5:8b:24:7d:e9:62:28:2e:bc:db:80:
                    03:ad:9e:d9:de:f5:06:0e:bb:8b:9a:fc:23:de:e3:
                    77:66:bf:e0:7e:15:2a:26:2c:61:38:f9:8f:28:20:
                    96:6e:63:51:a4:9c:17:fc:8e:85:94:1f:25:27:41:
                    79:2d:f4:d4:39:1d:7b:43:3b:93:6f:ca:a4:1e:0c:
                    c9:72:76:ae:5d:c0:24:5e:2b:8e:61:ac:4f:f2:78:
                    2d:7f:c8:a7:99:1a:c7:b4:72:83:d0:64:45:ae:b7:
                    0c:07:77:23:2c:ca:5f:36:16:61:e7:9a:43:ee:dd:
                    7b:82:d7:09:45:8e:71:78:6e:af:0d:0b:2b:d4:70:
                    e3:52:16:4b:4b:b1:7e:e4:fa:35:e3:ff:b6:7d:29:
                    f6:0c:14:0a:eb:29:40:b2:ef:bc:54:17:77:dd:1e:
                    91:21:30:16:a3:ce:f1:44:0a:e3:2a:10:9c:03:8c:
                    d9:ba:fb:2d:be:f1:58:43:36:91:37:af:97:eb:ff:
                    c9:a3:40:ea:a9:36:b4:47:f2:84:22:c1:cd:fe:90:
                    91:6a:1d:91:b6:d1:c7:83:d5:20:4a:5a:69:52:21:
                    2f:27
                Exponent: 65537 (0x10001)
        X509v3 extensions:
            X509v3 Basic Constraints: critical
                CA:TRUE
            X509v3 Key Usage: critical
                Certificate Sign
            X509v3 Subject Key Identifier: 
                AA:D4:9F:D7:C7:95:53:EE:73:C7:F9:55:36:E0:FE:88:6C:25:76:C7
    Signature Algorithm: sha256WithRSAEncryption
    Signature Value:
        94:f8:7a:4d:1d:fe:93:e6:3f:d9:a8:58:63:7f:1a:c5:11:a9:
        83:46:96:e9:5e:e7:97:8e:de:3c:3c:6f:f5:38:fe:f1:12:44:
        43:d7:fa:06:68:d0:fe:06:6d:94:8c:8a:0d:ed:2d:bd:fd:21:
        55:c7:3a:47:37:fa:e2:5d:87:2e:20:86:6f:80:d1:c6:a7:d5:
        ef:9f:a2:b7:a5:cb:e5:ca:41:f2:1a:0d:ef:88:31:88:76:13:
        6f:b2:d3:6e:ae:a0:67:79:4b:b0:db:41:03:7b:f1:80:5e:2a:
        c0:32:78:19:b9:8d:a2:73:ba:b6:d1:2b:b1:24:94:d6:99:a8:
        64:30:43:df:3f:61:9d:3c:0c:43:aa:9e:be:5c:8a:7b:cd:67:
        9f:b7:94:97:e6:6e:83:a4:3a:c9:0f:bf:fb:45:bb:8f:c2:f3:
        2c:92:0d:e2:ac:b5:c5:f2:fe:b8:fb:84:ad:fd:2c:ec:57:4d:
        ba:6f:11:1f:68:2b:87:64:f8:9a:eb:90:ba:c3:e6:83:50:0e:
        c9:cd:85:61:a6:24:5c:74:bb:4d:f1:61:a5:7c:b3:69:e6:99:
        ca:fb:a4:86:87:02:b5:e0:80:08:b3:4a:89:16:6b:ba:e7:23:
        24:90:6c:a0:1c:d7:62:83:6e:15:ba:d1:dc:0c:3b:8b:99:28:
        59:ef:a2:30
-----BEGIN CERTIFICATE-----
MIIDUTCCAjmgAwIBAgIBEDANBgkqhkiG9w0BAQsFADBKMQswCQYDVQQGEwJJTjEW
MBQGA1UECgwNVi1LZXkgUHRlIEx0ZDEjMCEGA1UEAwwaVi1LZXkgU2VydmljZSBS
b290IENBIFJvb3QwHhcNMjIwNzA2MTA0NjE2WhcNMjUwNzA1MTA0NjE2WjBKMQsw
CQYDVQQGEwJJTjEWMBQGA1UECgwNVi1LZXkgUHRlIEx0ZDEjMCEGA1UEAwwaVi1L
ZXkgU2VydmljZSBSb290IENBIFJvb3QwggEiMA0GCSqGSIb3DQEBAQUAA4IBDwAw
ggEKAoIBAQC4ODAu7C8RX256tTnRzstqaNeUso4PWYgYFc2AWP27t0rliyR96WIo
LrzbgAOtntne9QYOu4ua/CPe43dmv+B+FSomLGE4+Y8oIJZuY1GknBf8joWUHyUn
QXkt9NQ5HXtDO5NvyqQeDMlydq5dwCReK45hrE/yeC1/yKeZGse0coPQZEWutwwH
dyMsyl82FmHnmkPu3XuC1wlFjnF4bq8NCyvUcONSFktLsX7k+jXj/7Z9KfYMFArr
KUCy77xUF3fdHpEhMBajzvFECuMqEJwDjNm6+y2+8VhDNpE3r5fr/8mjQOqpNrRH
8oQiwc3+kJFqHZG20ceD1SBKWmlSIS8nAgMBAAGjQjBAMA8GA1UdEwEB/wQFMAMB
Af8wDgYDVR0PAQH/BAQDAgIEMB0GA1UdDgQWBBSq1J/Xx5VT7nPH+VU24P6IbCV2
xzANBgkqhkiG9w0BAQsFAAOCAQEAlPh6TR3+k+Y/2ahYY38axRGpg0aW6V7nl47e
PDxv9Tj+8RJEQ9f6BmjQ/gZtlIyKDe0tvf0hVcc6Rzf64l2HLiCGb4DRxqfV75+i
t6XL5cpB8hoN74gxiHYTb7LTbq6gZ3lLsNtBA3vxgF4qwDJ4GbmNonO6ttErsSSU
1pmoZDBD3z9hnTwMQ6qevlyKe81nn7eUl+Zug6Q6yQ+/+0W7j8LzLJIN4qy1xfL+
uPuErf0s7FdNum8RH2grh2T4muuQusPmg1AOyc2FYaYkXHS7TfFhpXyzaeaZyvuk
hocCteCACLNKiRZruucjJJBsoBzXYoNuFbrR3Aw7i5koWe+iMA==
-----END CERTIFICATE-----
