Certificate:
    Data:
        Version: 3 (0x2)
        Serial Number: 17 (0x11)
        Signature Algorithm: sha256WithRSAEncryption
        Issuer: C=IN, O=V-Key Pte Ltd, CN=V-Key Service Root CA Root
        Validity
            Not Before: Aug 15 08:00:00 2012 GMT
            Not After : Aug 15 09:00:00 2012 GMT
        Subject: C=IN, O=V-Key Pte Ltd, CN=V-Key license signer Intermediate
        Subject Public Key Info:
            Public Key Algorithm: rsaEncryption
                Public-Key: (2048 bit)
                Modulus:
                    00:87:c8:ff:25:fa:f3:93:35:58:e0:03:e1:bd:4f:
                    49:2e:7e:34:3a:fb:8e:3b:6f:fa:8f:eb:2f:96:fa:
                    f7:9d:84:a6:cc:38:07:5e:4d:1d:23:43:eb:a1:8b:
                    be:9f:92:a3:67:7b:5f:ea:b6:e7:d6:43:ca:70:da:
                    e8:a9:cc:43:5f:d7:30:7a:04:c6:1c:82:f8:b8:11:
                    81:1c:e3:48:34:ae:a0:e9:6f:2d:55:fc:0c:51:1e:
                    e5:28:a6:23:21:6c:b4:d8:0f:83:28:67:b4:79:1a:
                    60:81:ca:e3:ea:f7:f9:00:47:0f:8c:12:70:a5:15:
                    f3:3a:1f:b3:2e:e1:ec:43:5d:a5:bd:63:60:16:39:
                    28:a5:a1:18:f0:46:5c:14:32:45:1e:21:0d:3e:26:
                    17:d5:90:53:ba:c2:ef:b0:2d:34:d0:db:80:04:78:
                    0f:fa:ef:08:73:20:3c:3d:19:96:37:fa:41:61:94:
                    0b:db:22:70:51:1d:2d:1d:a5:20:6b:40:03:72:55:
                    49:d5:7a:ab:6c:0d:33:61:8e:7b:54:35:16:98:d5:
                    b7:16:48:09:07:52:9d:2d:4f:c9:e3:ec:49:6c:9c:
                    20:19:7d:49:40:20:41:de:68:c6:2d:9d:f5:0e:b3:
                    3b:74:88:e0:0b:87:a6:31:1a:b9:83:93:5d:e8:aa:
                    34:a1
                Exponent: 65537 (0x10001)
        X509v3 extensions:
            X509v3 Basic Constraints: critical
                CA:TRUE
            X509v3 Key Usage: critical
                Certificate Sign
            X509v3 Subject Key Identifier: 
                15:BD:74:B9:23:E9:2E:7F:06:72:F0:10:1F:FF:64:7F:D7:4A:7B:F2
            X509v3 Authority Key Identifier: 
                AA:D4:9F:D7:C7:95:53:EE:73:C7:F9:55:36:E0:FE:88:6C:25:76:C7
    Signature Algorithm: sha256WithRSAEncryption
    Signature Value:
        03:29:24:e0:a7:df:c4:c0:f5:4e:67:02:e4:21:45:e2:ba:c9:
        f3:82:24:eb:ed:cb:5a:10:25:26:b7:a0:e5:7c:2e:0d:3a:7f:
        c9:e1:f4:55:4e:42:74:f3:7b:65:e9:8e:2c:52:42:3b:5f:db:
        b7:1e:7a:a8:ed:56:9c:73:b2:ef:ca:40:38:33:a6:19:cc:c0:
        0c:4d:b3:77:f2:3f:34:92:07:0e:1c:8e:18:f4:6e:46:da:46:
        8a:6b:87:e4:b6:3d:bb:9f:2f:fb:bc:39:f4:fb:9a:74:98:56:
        70:4a:54:fb:4c:b6:8d:f7:1f:28:80:ad:3a:f6:2e:f6:1c:7c:
        9b:1b:b4:9b:15:e2:e0:7d:12:7c:f5:45:ba:c7:9b:93:8f:07:
        57:ab:a4:f0:42:ab:80:bb:3d:5c:40:d6:39:d8:be:39:98:63:
        f6:63:14:81:3b:d2:60:5b:eb:6c:a2:50:e6:3e:b1:3e:22:fd:
        af:b7:61:1f:54:c9:20:ef:b3:36:9b:03:2e:e9:97:ce:97:80:
        dd:18:a4:06:5f:f4:02:fd:9b:ef:11:32:4f:07:3f:e1:3e:b9:
        a1:0c:0c:03:f5:51:4e:5d:43:60:37:5b:45:05:e2:56:c9:c1:
        56:66:c5:da:b1:cb:33:4b:da:a4:8a:53:8d:5d:7e:0a:ca:2d:
        40:e7:f0:14
-----BEGIN CERTIFICATE-----
MIIDeTCCAmGgAwIBAgIBETANBgkqhkiG9w0BAQsFADBKMQswCQYDVQQGEwJJTjEW
MBQGA1UECgwNVi1LZXkgUHRlIEx0ZDEjMCEGA1UEAwwaVi1LZXkgU2VydmljZSBS
b290IENBIFJvb3QwHhcNMTIwODE1MDgwMDAwWhcNMTIwODE1MDkwMDAwWjBRMQsw
CQYDVQQGEwJJTjEWMBQGA1UECgwNVi1LZXkgUHRlIEx0ZDEqMCgGA1UEAwwhVi1L
ZXkgbGljZW5zZSBzaWduZXIgSW50ZXJtZWRpYXRlMIIBIjANBgkqhkiG9w0BAQEF
AAOCAQ8AMIIBCgKCAQEAh8j/JfrzkzVY4APhvU9JLn40OvuOO2/6j+svlvr3nYSm
zDgHXk0dI0ProYu+n5KjZ3tf6rbn1kPKcNroqcxDX9cwegTGHIL4uBGBHONINK6g
6W8tVfwMUR7lKKYjIWy02A+DKGe0eRpggcrj6vf5AEcPjBJwpRXzOh+zLuHsQ12l
vWNgFjkopaEY8EZcFDJFHiENPiYX1ZBTusLvsC000NuABHgP+u8IcyA8PRmWN/pB
YZQL2yJwUR0tHaUga0ADclVJ1XqrbA0zYY57VDUWmNW3FkgJB1KdLU/J4+xJbJwg
GX1JQCBB3mjGLZ31DrM7dIjgC4emMRq5g5Nd6Ko0oQIDAQABo2MwYTAPBgNVHRMB
Af8EBTADAQH/MA4GA1UdDwEB/wQEAwICBDAdBgNVHQ4EFgQUFb10uSPpLn8GcvAQ
H/9kf9dKe/IwHwYDVR0jBBgwFoAUqtSf18eVU+5zx/lVNuD+iGwldscwDQYJKoZI
hvcNAQELBQADggEBAAMpJOCn38TA9U5nAuQhReK6yfOCJOvty1oQJSa3oOV8Lg06
f8nh9FVOQnTze2XpjixSQjtf27ceeqjtVpxzsu/KQDgzphnMwAxNs3fyPzSSBw4c
jhj0bkbaRoprh+S2PbufL/u8OfT7mnSYVnBKVPtMto33HyiArTr2LvYcfJsbtJsV
4uB9Enz1RbrHm5OPB1erpPBCq4C7PVxA1jnYvjmYY/ZjFIE70mBb62yiUOY+sT4i
/a+3YR9UySDvszabAy7pl86XgN0YpAZf9AL9m+8RMk8HP+E+uaEMDAP1UU5dQ2A3
W0UF4lbJwVZmxdqxyzNL2qSKU41dfgrKLUDn8BQ=
-----END CERTIFICATE-----
