Certificate:
    Data:
        Version: 3 (0x2)
        Serial Number: 18 (0x12)
        Signature Algorithm: sha256WithRSAEncryption
        Issuer: C=IN, O=V-Key Pte Ltd, CN=V-Key Service Root CA Root
        Validity
            Not Before: Jul  6 10:47:10 2022 GMT
            Not After : Jul  5 10:47:10 2025 GMT
        Subject: C=IN, O=V-Key Pte Ltd, CN=V-Key Service Root CA Root
        Subject Public Key Info:
            Public Key Algorithm: rsaEncryption
                Public-Key: (2048 bit)
                Modulus:
                    00:f4:70:5a:b6:d0:e3:27:ab:9d:7d:e1:dd:ca:d3:
                    33:d9:18:12:be:25:d9:53:d9:2b:93:3d:35:0c:9f:
                    d1:d4:f5:24:6e:87:c0:29:02:d3:98:3a:5f:6e:d9:
                    93:18:94:db:44:90:0e:ec:b6:51:b6:fd:69:58:7f:
                    39:b8:82:d2:8b:db:8b:2b:31:92:a6:8d:21:dc:f0:
                    7c:38:86:48:a7:43:be:d5:17:52:a7:f2:dd:43:e1:
                    ac:47:8b:b6:2c:3f:90:93:b7:05:21:de:10:2a:e8:
                    f3:b5:cf:8f:89:9a:0d:bc:07:00:51:a7:b5:58:76:
                    c0:45:e1:a3:5f:93:fa:66:40:c9:9d:be:0d:a1:fc:
                    19:94:e3:73:a6:32:f7:95:46:c1:41:d3:26:a0:48:
                    75:db:77:d2:07:cd:09:fe:50:dd:03:27:5d:39:c2:
                    f4:ab:96:35:1a:ff:9c:50:39:f4:c4:71:67:46:d1:
                    48:81:36:3d:5e:39:fa:4b:11:4e:d7:3a:8e:3d:05:
                    29:be:4c:3e:6c:16:50:2f:91:ce:e7:ac:fa:11:d0:
                    0c:95:62:86:bf:ba:57:84:db:66:3a:ac:ca:a0:67:
                    0d:9a:d5:66:05:9d:7a:83:86:d5:64:29:d9:39:2e:
                    b0:12:c7:ae:30:39:ac:5e:af:55:32:42:fe:d6:1d:
                    4a:c3
                Exponent: 65537 (0x10001)
        X509v3 extensions:
            X509v3 Basic Constraints: critical
                CA:TRUE
            X509v3 Key Usage: critical
                Certificate Sign
            X509v3 Subject Key Identifier: 
                85:FB:9E:56:E5:83:83:FA:21:58:FE:79:05:96:5B:09:12:AD:0A:FD
    Signature Algorithm: sha256WithRSAEncryption
    Signature Value:
        7e:3e:2d:69:89:2c:2f:5d:13:dc:9e:ea:62:76:28:a9:4d:66:
        29:65:6a:f5:83:a2:01:bf:a2:e4:09:ee:b1:7e:36:63:4e:c9:
        36:4d:f1:1c:97:6b:b2:b3:f6:d4:9b:69:75:fc:c6:50:87:7f:
        a1:fd:29:6c:7f:f0:53:57:0e:40:ca:95:f6:0f:59:f6:eb:21:
        8a:e1:7d:82:19:4f:56:df:04:f7:97:46:b1:f2:07:40:fc:69:
        82:89:1f:1c:85:83:a6:90:21:13:26:5f:34:d8:c1:8a:7d:87:
        7d:ff:6c:79:7b:8d:d2:9f:b4:2f:32:5b:13:3f:4e:65:a2:5a:
        5e:bf:9c:f3:2d:5d:5f:be:6c:3a:3a:8f:b7:9f:e7:97:52:58:
        de:b7:39:8f:de:05:58:18:80:5a:c0:85:ad:c0:c0:71:13:bb:
        64:a3:72:01:a7:00:de:71:c0:ac:18:cd:47:53:0d:3c:4c:78:
        fb:78:26:b0:10:fd:65:7c:c9:ed:62:b5:aa:9e:0b:45:82:a3:
        d6:f7:21:38:9e:f8:54:13:bf:5e:0f:41:6f:c2:03:29:77:b0:
        52:c3:a5:fb:e2:92:31:18:c9:13:27:c7:77:0f:98:ea:4b:d6:
        76:15:34:7d:cc:1c:89:44:6d:a4:d6:fb:6e:b8:90:2f:57:56:
        2e:d2:ab:45
-----BEGIN CERTIFICATE-----
MIIDUTCCAjmgAwIBAgIBEjANBgkqhkiG9w0BAQsFADBKMQswCQYDVQQGEwJJTjEW
MBQGA1UECgwNVi1LZXkgUHRlIEx0ZDEjMCEGA1UEAwwaVi1LZXkgU2VydmljZSBS
b290IENBIFJvb3QwHhcNMjIwNzA2MTA0NzEwWhcNMjUwNzA1MTA0NzEwWjBKMQsw
CQYDVQQGEwJJTjEWMBQGA1UECgwNVi1LZXkgUHRlIEx0ZDEjMCEGA1UEAwwaVi1L
ZXkgU2VydmljZSBSb290IENBIFJvb3QwggEiMA0GCSqGSIb3DQEBAQUAA4IBDwAw
ggEKAoIBAQD0cFq20OMnq5194d3K0zPZGBK+JdlT2SuTPTUMn9HU9SRuh8ApAtOY
Ol9u2ZMYlNtEkA7stlG2/WlYfzm4gtKL24srMZKmjSHc8Hw4hkinQ77VF1Kn8t1D
4axHi7YsP5CTtwUh3hAq6PO1z4+Jmg28BwBRp7VYdsBF4aNfk/pmQMmdvg2h/BmU
43OmMveVRsFB0yagSHXbd9IHzQn+UN0DJ105wvSrljUa/5xQOfTEcWdG0UiBNj1e
OfpLEU7XOo49BSm+TD5sFlAvkc7nrPoR0AyVYoa/uleE22Y6rMqgZw2a1WYFnXqD
htVkKdk5LrASx64wOaxer1UyQv7WHUrDAgMBAAGjQjBAMA8GA1UdEwEB/wQFMAMB
Af8wDgYDVR0PAQH/BAQDAgIEMB0GA1UdDgQWBBSF+55W5YOD+iFY/nkFllsJEq0K
/TANBgkqhkiG9w0BAQsFAAOCAQEAfj4taYksL10T3J7qYnYoqU1mKWVq9YOiAb+i
5AnusX42Y07JNk3xHJdrsrP21JtpdfzGUId/of0pbH/wU1cOQMqV9g9Z9ushiuF9
ghlPVt8E95dGsfIHQPxpgokfHIWDppAhEyZfNNjBin2Hff9seXuN0p+0LzJbEz9O
ZaJaXr+c8y1dX75sOjqPt5/nl1JY3rc5j94FWBiAWsCFrcDAcRO7ZKNyAacA3nHA
rBjNR1MNPEx4+3gmsBD9ZXzJ7WK1qp4LRYKj1vchOJ74VBO/Xg9Bb8IDKXewUsOl
++KSMRjJEyfHdw+Y6kvWdhU0fcwciURtpNb7briQL1dWLtKrRQ==
-----END CERTIFICATE-----
