Certificate:
    Data:
        Version: 3 (0x2)
        Serial Number: 19 (0x13)
        Signature Algorithm: sha256WithRSAEncryption
        Issuer: C=IN, O=V-Key Pte Ltd, CN=V-Key Service Root CA Root
        Validity
            Not Before: Aug 15 08:00:00 2012 GMT
            Not After : Aug 15 09:00:00 2012 GMT
        Subject: C=IN, O=V-Key Pte Ltd, CN=V-Key license signer Intermediate
        Subject Public Key Info:
            Public Key Algorithm: rsaEncryption
                Public-Key: (2048 bit)
                Modulus:
                    00:a9:90:04:48:78:a5:cd:4b:80:2e:43:9f:b7:3d:
                    28:d8:0f:32:e2:8d:3e:9d:23:45:25:09:aa:d7:30:
                    9f:8b:54:f0:06:41:bd:96:8d:52:9c:2d:43:05:65:
                    c2:30:ee:fa:0d:5a:38:a9:7f:a5:26:00:2c:04:00:
                    0d:25:c8:10:26:a1:3a:03:66:26:f9:eb:47:45:87:
                    04:4b:ef:50:e0:3e:19:0a:1d:a2:7e:b7:8d:55:ea:
                    03:4f:15:ef:32:e3:ee:08:6b:fc:a3:ce:00:bb:22:
                    dc:dc:a0:36:5e:42:08:52:80:c2:2d:e0:02:3d:31:
                    f4:dc:89:fd:15:c2:23:65:bf:c1:bb:8d:ad:33:41:
                    1e:2d:f6:bc:d4:aa:4b:67:39:7a:5b:a3:d3:8b:f4:
                    5a:3c:92:76:1f:ed:ac:10:17:2d:7a:57:95:a9:d6:
                    6b:39:85:43:e5:a1:69:67:9e:5f:a1:32:6c:4d:36:
                    b5:6a:52:1d:bb:d6:06:7e:5e:d6:e3:4b:c7:dc:7b:
                    ed:e6:06:6e:57:57:bf:cb:2a:76:f9:85:12:40:35:
                    8e:03:0d:a9:14:32:7f:88:9e:c3:cd:e7:13:18:d8:
                    96:ce:1c:c4:d9:e0:f6:22:eb:4d:eb:b1:25:b8:87:
                    b4:93:78:bd:b7:e7:1f:a3:ae:24:8a:42:24:17:fd:
                    d1:3b
                Exponent: 65537 (0x10001)
        X509v3 extensions:
            X509v3 Basic Constraints: critical
                CA:TRUE
            X509v3 Key Usage: critical
                Certificate Sign
            X509v3 Subject Key Identifier: 
                68:7D:20:9B:CF:3D:60:1B:A4:3D:56:EF:F0:64:4B:BB:19:08:83:32
            X509v3 Authority Key Identifier: 
                85:FB:9E:56:E5:83:83:FA:21:58:FE:79:05:96:5B:09:12:AD:0A:FD
    Signature Algorithm: sha256WithRSAEncryption
    Signature Value:
        b6:75:98:67:b6:63:39:7d:f4:51:07:d9:ba:e3:0c:fd:47:4e:
        b4:fc:7e:af:63:87:d8:20:d8:29:21:a9:61:2d:cc:20:b4:26:
        a2:98:ae:b0:37:34:2e:bf:39:68:c8:60:f4:e1:6e:3d:ee:c8:
        0e:21:79:2f:48:9d:98:ad:95:2a:8c:53:96:be:e6:00:0b:a6:
        41:09:e2:4b:e8:2f:c6:db:06:ce:2c:33:a8:04:33:13:94:5e:
        09:69:28:33:9c:94:a9:7d:1e:5f:16:3b:1b:15:a3:4c:f4:0f:
        2f:18:0a:dc:6f:31:22:a4:5d:b9:23:e1:72:eb:99:39:48:e5:
        24:de:6c:61:6d:f5:60:d1:ed:39:64:b9:02:c2:12:9e:56:7e:
        2c:cb:2a:8a:9f:78:b3:06:b4:0c:fc:51:96:31:fe:b8:df:90:
        fa:d8:d5:9c:25:e9:98:1e:3b:bc:1c:62:cd:6d:1f:bb:53:ba:
        40:75:20:e0:cc:8e:02:99:3d:47:9f:2b:0c:ca:64:37:58:3d:
        83:9b:82:a2:13:67:1b:17:0b:87:77:f7:14:a2:62:6b:3d:ae:
        1c:7e:70:ba:cb:11:cf:4b:03:23:c5:06:9b:ca:94:63:94:89:
        e2:06:d7:ee:a2:82:ef:0c:43:52:41:a8:50:b8:2f:c3:ba:14:
        8d:84:05:9e
-----BEGIN CERTIFICATE-----
MIIDeTCCAmGgAwIBAgIBEzANBgkqhkiG9w0BAQsFADBKMQswCQYDVQQGEwJJTjEW
MBQGA1UECgwNVi1LZXkgUHRlIEx0ZDEjMCEGA1UEAwwaVi1LZXkgU2VydmljZSBS
b290IENBIFJvb3QwHhcNMTIwODE1MDgwMDAwWhcNMTIwODE1MDkwMDAwWjBRMQsw
CQYDVQQGEwJJTjEWMBQGA1UECgwNVi1LZXkgUHRlIEx0ZDEqMCgGA1UEAwwhVi1L
ZXkgbGljZW5zZSBzaWduZXIgSW50ZXJtZWRpYXRlMIIBIjANBgkqhkiG9w0BAQEF
AAOCAQ8AMIIBCgKCAQEAqZAESHilzUuALkOftz0o2A8y4o0+nSNFJQmq1zCfi1Tw
BkG9lo1SnC1DBWXCMO76DVo4qX+lJgAsBAANJcgQJqE6A2Ym+etHRYcES+9Q4D4Z
Ch2ifreNVeoDTxXvMuPuCGv8o84AuyLc3KA2XkIIUoDCLeACPTH03In9FcIjZb/B
u42tM0EeLfa81KpLZzl6W6PTi/RaPJJ2H+2sEBcteleVqdZrOYVD5aFpZ55foTJs
TTa1alIdu9YGfl7W40vH3Hvt5gZuV1e/yyp2+YUSQDWOAw2pFDJ/iJ7DzecTGNiW
zhzE2eD2IutN67EluIe0k3i9t+cfo64kikIkF/3ROwIDAQABo2MwYTAPBgNVHRMB
Af8EBTADAQH/MA4GA1UdDwEB/wQEAwICBDAdBgNVHQ4EFgQUaH0gm889YBukPVbv
8GRLuxkIgzIwHwYDVR0jBBgwFoAUhfueVuWDg/ohWP55BZZbCRKtCv0wDQYJKoZI
hvcNAQELBQADggEBALZ1mGe2Yzl99FEH2brjDP1HTrT8fq9jh9gg2CkhqWEtzCC0
JqKYrrA3NC6/OWjIYPThbj3uyA4heS9InZitlSqMU5a+5gALpkEJ4kvoL8bbBs4s
M6gEMxOUXglpKDOclKl9Hl8WOxsVo0z0Dy8YCtxvMSKkXbkj4XLrmTlI5STebGFt
9WDR7TlkuQLCEp5WfizLKoqfeLMGtAz8UZYx/rjfkPrY1Zwl6ZgeO7wcYs1tH7tT
ukB1IODMjgKZPUefKwzKZDdYPYObgqITZxsXC4d39xSiYms9rhx+cLrLEc9LAyPF
BpvKlGOUieIG1+6igu8MQ1JBqFC4L8O6FI2EBZ4=
-----END CERTIFICATE-----
