Certificate:
    Data:
        Version: 3 (0x2)
        Serial Number: 20 (0x14)
        Signature Algorithm: sha256WithRSAEncryption
        Issuer: C=IN, O=V-Key Pte Ltd, CN=V-Key Service Root CA Root
        Validity
            Not Before: Jul  6 10:48:26 2022 GMT
            Not After : Jul  5 10:48:26 2025 GMT
        Subject: C=IN, O=V-Key Pte Ltd, CN=V-Key Service Root CA Root
        Subject Public Key Info:
            Public Key Algorithm: rsaEncryption
                Public-Key: (2048 bit)
                Modulus:
                    00:c1:46:f0:56:ad:cc:93:0e:ce:72:cc:d8:2c:4a:
                    ff:27:8b:9b:98:1a:85:0c:b9:62:5f:4b:c6:26:27:
                    be:0a:95:04:9e:7e:f0:d7:e6:09:af:45:7b:ad:fa:
                    4f:6c:16:06:e5:6c:25:e0:cf:ff:a9:bc:2e:a9:57:
                    6a:6a:bc:b0:e6:e1:f9:55:55:a9:a6:a7:71:7f:a0:
                    ef:1d:e8:24:d8:fd:3b:85:20:66:37:e4:34:c3:f1:
                    d7:7f:72:38:26:7d:04:82:3f:72:ed:ce:15:02:26:
                    ac:ac:19:46:a1:a6:f1:5c:f2:25:c0:3c:eb:53:4c:
                    d7:68:2d:89:dc:ac:cd:ee:2b:c7:43:5f:d8:11:cc:
                    97:9f:64:ce:8a:54:f8:bb:d8:7d:48:e9:e4:1e:7f:
                    be:ef:fe:b7:c3:76:e7:67:5e:f9:2e:89:1e:33:eb:
                    9a:31:97:df:90:db:4b:cf:cd:8b:89:6a:86:e9:bd:
                    17:7a:06:33:8a:8c:47:02:36:1d:6b:c3:9c:f3:03:
                    5f:7c:6f:2b:a5:eb:bb:a0:e1:b7:7a:e6:ec:25:2d:
                    dc:40:81:e9:a4:b6:95:91:95:42:1f:d6:f6:77:07:
                    b3:68:76:05:7d:57:c6:3e:3f:37:f4:6c:89:ec:0a:
                    44:56:85:5a:83:55:41:71:7e:ca:c5:26:af:18:1d:
                    89:4f
                Exponent: 65537 (0x10001)
        X509v3 extensions:
            X509v3 Basic Constraints: critical
                CA:TRUE
            X509v3 Key Usage: critical
                Certificate Sign
            X509v3 Subject Key Identifier: 
                18:AD:11:AA:0D:E4:83:13:D6:5D:9D:DF:CA:EB:34:4E:CD:1D:D4:C6
    Signature Algorithm: sha256WithRSAEncryption
    Signature Value:
        ae:e8:8e:a7:f4:ef:c4:f7:37:91:1d:8b:1b:bb:61:f8:10:e3:
        35:4d:f0:3c:7f:94:69:54:dc:5e:ca:19:79:cb:56:c4:a0:cb:
        ba:80:12:5a:17:82:80:25:db:02:3e:fd:ae:a2:74:a7:4e:69:
        76:3c:2a:ed:92:7a:a9:dc:90:29:de:54:d4:52:a7:1c:94:fe:
        20:69:4d:64:68:80:8f:55:5a:a4:60:a4:6a:9f:93:0c:5d:f8:
        a8:1a:19:c2:76:34:6b:a9:aa:8d:b9:5c:ca:4d:63:68:76:0d:
        fa:d5:8c:65:b0:9b:2f:f7:e8:d0:e7:23:c3:de:30:30:7f:9a:
        da:b2:20:43:5e:05:a5:c2:15:92:2e:73:17:3d:3d:5a:40:b1:
        cd:0d:12:a7:d6:86:cc:fc:07:f8:0a:51:fe:d4:f1:cc:40:d8:
        14:b2:e5:8f:12:20:68:92:48:cd:42:33:32:12:b4:c6:6e:26:
        5f:e9:f4:2d:92:57:5a:2b:89:7d:f8:9e:21:11:05:70:fb:7f:
        6e:17:f4:35:c0:83:1e:32:80:2b:76:52:3d:33:40:98:23:e5:
        e4:6f:70:d5:61:4e:43:80:05:8e:d4:70:99:ae:8d:59:53:58:
        29:4b:47:18:34:6a:49:0e:9b:9e:68:80:0f:6e:96:0c:27:fe:
        13:ed:d1:65
-----BEGIN CERTIFICATE-----
MIIDUTCCAjmgAwIBAgIBFDANBgkqhkiG9w0BAQsFADBKMQswCQYDVQQGEwJJTjEW
MBQGA1UECgwNVi1LZXkgUHRlIEx0ZDEjMCEGA1UEAwwaVi1LZXkgU2VydmljZSBS
b290IENBIFJvb3QwHhcNMjIwNzA2MTA0ODI2WhcNMjUwNzA1MTA0ODI2WjBKMQsw
CQYDVQQGEwJJTjEWMBQGA1UECgwNVi1LZXkgUHRlIEx0ZDEjMCEGA1UEAwwaVi1L
ZXkgU2VydmljZSBSb290IENBIFJvb3QwggEiMA0GCSqGSIb3DQEBAQUAA4IBDwAw
ggEKAoIBAQDBRvBWrcyTDs5yzNgsSv8ni5uYGoUMuWJfS8YmJ74KlQSefvDX5gmv
RXut+k9sFgblbCXgz/+pvC6pV2pqvLDm4flVVammp3F/oO8d6CTY/TuFIGY35DTD
8dd/cjgmfQSCP3LtzhUCJqysGUahpvFc8iXAPOtTTNdoLYncrM3uK8dDX9gRzJef
ZM6KVPi72H1I6eQef77v/rfDdudnXvkuiR4z65oxl9+Q20vPzYuJaobpvRd6BjOK
jEcCNh1rw5zzA198byul67ug4bd65uwlLdxAgemktpWRlUIf1vZ3B7NodgV9V8Y+
Pzf0bInsCkRWhVqDVUFxfsrFJq8YHYlPAgMBAAGjQjBAMA8GA1UdEwEB/wQFMAMB
Af8wDgYDVR0PAQH/BAQDAgIEMB0GA1UdDgQWBBQYrRGqDeSDE9Zdnd/K6zROzR3U
xjANBgkqhkiG9w0BAQsFAAOCAQEAruiOp/TvxPc3kR2LG7th+BDjNU3wPH+UaVTc
XsoZectWxKDLuoASWheCgCXbAj79rqJ0p05pdjwq7ZJ6qdyQKd5U1FKnHJT+IGlN
ZGiAj1VapGCkap+TDF34qBoZwnY0a6mqjblcyk1jaHYN+tWMZbCbL/fo0Ocjw94w
MH+a2rIgQ14FpcIVki5zFz09WkCxzQ0Sp9aGzPwH+ApR/tTxzEDYFLLljxIgaJJI
zUIzMhK0xm4mX+n0LZJXWiuJffieIREFcPt/bhf0NcCDHjKAK3ZSPTNAmCPl5G9w
1WFOQ4AFjtRwma6NWVNYKUtHGDRqSQ6bnmiAD26WDCf+E+3RZQ==
-----END CERTIFICATE-----
