Certificate:
    Data:
        Version: 3 (0x2)
        Serial Number: 21 (0x15)
        Signature Algorithm: sha256WithRSAEncryption
        Issuer: C=IN, O=V-Key Pte Ltd, CN=V-Key Service Root CA Root
        Validity
            Not Before: Jul  6 10:48:28 2022 GMT
            Not After : Jul  5 10:48:28 2024 GMT
        Subject: C=IN, O=V-Key Pte Ltd, CN=V-Key license signer Intermediate
        Subject Public Key Info:
            Public Key Algorithm: rsaEncryption
                Public-Key: (2048 bit)
                Modulus:
                    00:b5:dc:28:97:35:6f:bc:b7:ab:f5:fd:49:55:99:
                    e9:31:d0:36:77:66:d0:f5:80:03:74:c0:b7:da:0a:
                    d6:9e:3a:56:53:46:af:0c:fb:c4:9e:9e:bc:cd:08:
                    5d:e2:4a:94:f7:3a:3b:08:e6:23:b8:84:bc:6d:e6:
                    8c:2b:ac:d4:0b:70:1a:8e:22:8b:56:49:18:9b:9a:
                    a8:ec:2b:bd:80:6e:e5:69:47:d8:a3:fa:0e:04:5f:
                    3a:7f:23:6e:9d:b7:b6:14:05:1b:70:06:1b:8a:1b:
                    4b:91:5f:56:76:1e:5f:19:ef:b4:80:43:bd:27:2c:
                    96:b8:28:5f:7e:c6:8e:0c:f1:56:56:97:97:25:41:
                    46:6d:81:13:e5:f1:f9:9b:92:c3:f8:34:8c:61:01:
                    48:6f:39:62:6f:a0:b4:6d:61:9c:15:cf:ca:38:8e:
                    2a:0f:88:8d:da:35:f3:24:d5:b8:54:a6:87:39:6f:
                    ae:e0:0e:47:24:21:f5:75:6f:cb:58:1f:21:bf:10:
                    f4:32:43:cc:86:93:2b:72:17:4f:3b:74:1b:9a:5f:
                    d8:d3:1d:83:65:1c:7a:d8:01:99:97:cc:f8:db:04:
                    12:e6:1a:c9:02:5f:de:da:ac:fc:01:9c:cd:c8:91:
                    ba:30:60:0f:5c:28:f9:72:0d:ac:1d:da:60:f4:d5:
                    85:eb
                Exponent: 65537 (0x10001)
        X509v3 extensions:
            X509v3 Basic Constraints: critical
                CA:TRUE
            X509v3 Key Usage: critical
                Certificate Sign
            X509v3 Subject Key Identifier: 
                DC:8D:F2:0D:25:B0:60:63:54:E3:2D:BC:BD:3D:2B:6F:68:05:D1:42
            X509v3 Authority Key Identifier: 
                18:AD:11:AA:0D:E4:83:13:D6:5D:9D:DF:CA:EB:34:4E:CD:1D:D4:C6
    Signature Algorithm: sha256WithRSAEncryption
    Signature Value:
        13:17:e6:e7:19:b1:34:ab:ae:a7:20:8a:b0:9c:66:7e:59:c4:
        b3:56:ad:8f:1d:0c:1e:4d:74:76:b9:ef:29:df:9c:d3:a3:7c:
        2d:34:39:a8:e7:d6:b3:40:04:48:b0:94:03:15:61:f7:39:cd:
        35:a4:71:8f:ea:bf:82:20:01:7c:8c:15:c6:9f:6d:ff:4e:ee:
        8b:62:a1:a0:83:b1:9d:29:74:d3:f4:40:1a:a7:40:6e:be:88:
        f6:52:5e:b0:2b:2a:94:51:12:53:e1:48:e9:1d:35:32:a1:c3:
        de:26:8f:6c:8b:b0:7a:b6:e0:93:9b:25:89:b3:b6:07:5b:9a:
        6a:80:b5:f6:86:ca:e5:7d:6c:e2:d5:41:60:9c:e9:70:50:37:
        59:aa:eb:9f:a2:31:ab:2f:1c:a8:45:7b:ad:34:af:f1:79:4e:
        a3:a6:c9:ca:3e:83:c9:9a:54:63:1f:a1:7e:24:a4:1f:6b:75:
        ec:50:8c:b8:c8:75:b8:88:53:78:d1:24:8d:2b:d7:22:39:f5:
        7a:9b:3b:d0:5b:e0:d1:c4:ac:ed:70:97:f6:49:b0:b2:c9:4c:
        37:89:37:4d:19:d1:a2:c1:ce:b6:17:2c:90:fa:8c:b0:44:60:
        e2:7f:9e:d5:2a:0f:0e:8b:49:c9:7d:a7:a0:7a:47:99:3a:5a:
        46:3d:d7:83
-----BEGIN CERTIFICATE-----
MIIDeTCCAmGgAwIBAgIBFTANBgkqhkiG9w0BAQsFADBKMQswCQYDVQQGEwJJTjEW
MBQGA1UECgwNVi1LZXkgUHRlIEx0ZDEjMCEGA1UEAwwaVi1LZXkgU2VydmljZSBS
b290IENBIFJvb3QwHhcNMjIwNzA2MTA0ODI4WhcNMjQwNzA1MTA0ODI4WjBRMQsw
CQYDVQQGEwJJTjEWMBQGA1UECgwNVi1LZXkgUHRlIEx0ZDEqMCgGA1UEAwwhVi1L
ZXkgbGljZW5zZSBzaWduZXIgSW50ZXJtZWRpYXRlMIIBIjANBgkqhkiG9w0BAQEF
AAOCAQ8AMIIBCgKCAQEAtdwolzVvvLer9f1JVZnpMdA2d2bQ9YADdMC32grWnjpW
U0avDPvEnp68zQhd4kqU9zo7COYjuIS8beaMK6zUC3AajiKLVkkYm5qo7Cu9gG7l
aUfYo/oOBF86fyNunbe2FAUbcAYbihtLkV9Wdh5fGe+0gEO9JyyWuChffsaODPFW
VpeXJUFGbYET5fH5m5LD+DSMYQFIbzlib6C0bWGcFc/KOI4qD4iN2jXzJNW4VKaH
OW+u4A5HJCH1dW/LWB8hvxD0MkPMhpMrchdPO3Qbml/Y0x2DZRx62AGZl8z42wQS
5hrJAl/e2qz8AZzNyJG6MGAPXCj5cg2sHdpg9NWF6wIDAQABo2MwYTAPBgNVHRMB
Af8EBTADAQH/MA4GA1UdDwEB/wQEAwICBDAdBgNVHQ4EFgQU3I3yDSWwYGNU4y28
vT0rb2gF0UIwHwYDVR0jBBgwFoAUGK0Rqg3kgxPWXZ3fyus0Ts0d1MYwDQYJKoZI
hvcNAQELBQADggEBABMX5ucZsTSrrqcgirCcZn5ZxLNWrY8dDB5NdHa57ynfnNOj
fC00Oajn1rNABEiwlAMVYfc5zTWkcY/qv4IgAXyMFcafbf9O7otioaCDsZ0pdNP0
QBqnQG6+iPZSXrArKpRRElPhSOkdNTKhw94mj2yLsHq24JObJYmztgdbmmqAtfaG
yuV9bOLVQWCc6XBQN1mq65+iMasvHKhFe600r/F5TqOmyco+g8maVGMfoX4kpB9r
dexQjLjIdbiIU3jRJI0r1yI59XqbO9Bb4NHErO1wl/ZJsLLJTDeJN00Z0aLBzrYX
LJD6jLBEYOJ/ntUqDw6LScl9p6B6R5k6WkY914M=
-----END CERTIFICATE-----
