Certificate:
    Data:
        Version: 3 (0x2)
        Serial Number: 22 (0x16)
        Signature Algorithm: sha256WithRSAEncryption
        Issuer: C=IN, O=V-Key Pte Ltd, CN=V-Key Service Root CA Root
        Validity
            Not Before: Jul  6 10:59:01 2022 GMT
            Not After : Jul  5 10:59:01 2025 GMT
        Subject: C=IN, O=V-Key Pte Ltd, CN=V-Key Service Root CA Root
        Subject Public Key Info:
            Public Key Algorithm: rsaEncryption
                Public-Key: (2048 bit)
                Modulus:
                    00:d8:47:95:27:94:b6:bf:31:ea:13:01:c4:ed:5d:
                    ef:3f:71:05:9d:b1:6a:f6:b6:0b:82:48:23:41:1a:
                    47:6b:8c:10:49:c4:1e:06:c6:3e:72:42:ca:55:b5:
                    92:b3:c8:29:dc:18:ae:73:4b:ae:06:c8:cf:f9:22:
                    6c:e0:3a:34:37:b3:f7:61:32:cc:e8:bb:8f:4d:5c:
                    7b:e4:27:be:57:b5:b9:fa:0f:a9:ec:25:72:30:ff:
                    99:07:19:be:ef:f1:76:9e:d3:ad:ae:4c:ec:f5:70:
                    d6:5d:4b:38:d3:f5:83:9f:6a:58:14:95:f8:78:4d:
                    63:9e:45:54:53:c2:29:fc:0b:f7:d8:ab:07:11:27:
                    80:27:5c:7d:d1:ea:4c:68:35:91:f6:16:00:ad:8d:
                    83:d1:51:4a:64:81:77:32:16:e2:8b:dd:f2:52:00:
                    0a:4a:01:74:26:f9:9b:aa:2c:a7:05:50:21:51:6c:
                    17:82:b8:10:46:63:d7:dd:6b:cd:e5:20:8a:5e:53:
                    56:58:e7:43:ee:4b:56:53:5d:17:af:5c:83:ec:ba:
                    d7:09:c3:70:f5:af:96:c7:de:82:67:73:f4:d9:49:
                    82:04:ae:11:c9:6a:ae:f8:8e:70:12:4e:dc:3a:0e:
                    64:25:f7:68:0c:81:8d:40:47:3e:57:1f:b7:67:ac:
                    36:41
                Exponent: 65537 (0x10001)
        X509v3 extensions:
            X509v3 Basic Constraints: critical
                CA:TRUE
            X509v3 Key Usage: critical
                Certificate Sign
            X509v3 Subject Key Identifier: 
                C8:32:46:CD:45:D1:01:63:DC:1F:6C:0E:F0:A5:E0:57:D0:44:F8:30
    Signature Algorithm: sha256WithRSAEncryption
    Signature Value:
        89:be:a4:e4:5c:86:ff:76:92:39:2f:98:8f:db:68:87:1f:79:
        c1:11:8a:b7:4e:c9:cf:8b:0f:16:0e:60:f2:9e:09:be:9b:9e:
        e8:7d:09:5b:19:cd:38:c7:a0:09:6a:ba:35:9f:60:8a:99:d6:
        77:25:99:95:14:1c:ed:6e:a7:ed:23:55:9c:23:90:78:18:d8:
        81:fb:f5:37:08:2f:9b:fb:2f:0d:90:46:44:2f:64:01:03:d9:
        29:10:f0:6e:68:d1:6e:8d:65:df:3e:da:87:5a:27:12:e4:be:
        39:60:3a:05:4b:57:f8:6f:41:ec:91:0b:e5:39:35:57:eb:14:
        95:38:5c:d1:2f:65:c2:47:b1:b8:50:72:05:93:c5:f8:c3:fc:
        75:8f:23:b7:da:60:b5:8b:f2:0a:95:56:57:a7:a9:79:2e:28:
        bd:42:9c:16:a5:c2:09:a4:df:fa:09:e6:60:d9:85:be:a6:08:
        c9:0b:fc:1a:ff:4e:96:29:aa:dc:ad:64:87:05:5a:f8:ca:35:
        7d:dc:25:6e:2e:45:5c:30:95:e4:f4:37:88:5e:67:4b:06:da:
        b7:bb:8b:b8:1b:0e:1b:f3:d5:de:0e:ab:c2:a6:8a:53:ff:44:
        0c:0d:00:b2:f9:18:ff:d7:e6:4c:ac:f0:14:0d:f4:2d:f5:89:
        17:82:4b:69
-----BEGIN CERTIFICATE-----
MIIDUTCCAjmgAwIBAgIBFjANBgkqhkiG9w0BAQsFADBKMQswCQYDVQQGEwJJTjEW
MBQGA1UECgwNVi1LZXkgUHRlIEx0ZDEjMCEGA1UEAwwaVi1LZXkgU2VydmljZSBS
b290IENBIFJvb3QwHhcNMjIwNzA2MTA1OTAxWhcNMjUwNzA1MTA1OTAxWjBKMQsw
CQYDVQQGEwJJTjEWMBQGA1UECgwNVi1LZXkgUHRlIEx0ZDEjMCEGA1UEAwwaVi1L
ZXkgU2VydmljZSBSb290IENBIFJvb3QwggEiMA0GCSqGSIb3DQEBAQUAA4IBDwAw
ggEKAoIBAQDYR5UnlLa/MeoTAcTtXe8/cQWdsWr2tguCSCNBGkdrjBBJxB4Gxj5y
QspVtZKzyCncGK5zS64GyM/5ImzgOjQ3s/dhMszou49NXHvkJ75Xtbn6D6nsJXIw
/5kHGb7v8Xae062uTOz1cNZdSzjT9YOfalgUlfh4TWOeRVRTwin8C/fYqwcRJ4An
XH3R6kxoNZH2FgCtjYPRUUpkgXcyFuKL3fJSAApKAXQm+ZuqLKcFUCFRbBeCuBBG
Y9fda83lIIpeU1ZY50PuS1ZTXRevXIPsutcJw3D1r5bH3oJnc/TZSYIErhHJaq74
jnASTtw6DmQl92gMgY1ARz5XH7dnrDZBAgMBAAGjQjBAMA8GA1UdEwEB/wQFMAMB
Af8wDgYDVR0PAQH/BAQDAgIEMB0GA1UdDgQWBBTIMkbNRdEBY9wfbA7wpeBX0ET4
MDANBgkqhkiG9w0BAQsFAAOCAQEAib6k5FyG/3aSOS+Yj9tohx95wRGKt07Jz4sP
Fg5g8p4Jvpue6H0JWxnNOMegCWq6NZ9gipnWdyWZlRQc7W6n7SNVnCOQeBjYgfv1
Nwgvm/svDZBGRC9kAQPZKRDwbmjRbo1l3z7ah1onEuS+OWA6BUtX+G9B7JEL5Tk1
V+sUlThc0S9lwkexuFByBZPF+MP8dY8jt9pgtYvyCpVWV6epeS4ovUKcFqXCCaTf
+gnmYNmFvqYIyQv8Gv9Olimq3K1khwVa+Mo1fdwlbi5FXDCV5PQ3iF5nSwbat7uL
uBsOG/PV3g6rwqaKU/9EDA0AsvkY/9fmTKzwFA30LfWJF4JLaQ==
-----END CERTIFICATE-----
