Certificate:
    Data:
        Version: 3 (0x2)
        Serial Number: 23 (0x17)
        Signature Algorithm: sha256WithRSAEncryption
        Issuer: C=IN, O=V-Key Pte Ltd, CN=V-Key Service Root CA Root
        Validity
            Not Before: Aug 15 08:00:00 2012 GMT
            Not After : Aug 15 09:00:00 2012 GMT
        Subject: C=IN, O=V-Key Pte Ltd, CN=V-Key license signer Intermediate
        Subject Public Key Info:
            Public Key Algorithm: rsaEncryption
                Public-Key: (2048 bit)
                Modulus:
                    00:a5:4f:c1:52:58:95:21:8f:f1:7b:59:9a:5e:8d:
                    a2:81:6f:d7:c9:0f:e9:a7:02:08:e9:7a:a4:76:89:
                    b9:bc:bc:a2:f0:1e:e3:26:17:c7:8a:22:6c:8d:89:
                    bf:e6:0a:38:eb:7c:97:0c:ec:fe:dc:c4:cd:11:2e:
                    24:52:9f:ea:90:54:52:ec:cc:12:cb:8d:48:0a:d1:
                    24:ab:3e:03:ff:d7:53:ae:86:99:40:20:4e:13:de:
                    8d:23:84:a4:4e:35:70:ff:ff:bc:81:7d:43:8b:41:
                    2a:e0:30:1c:67:5d:ec:9c:f0:b6:ee:b1:e0:9d:b0:
                    34:f3:8a:9d:30:23:1e:39:dd:db:52:90:3e:32:47:
                    69:95:3b:45:73:86:a7:f8:fc:c1:7a:c2:48:69:f8:
                    8b:1e:9d:33:58:7d:b3:c7:da:18:28:f1:4d:28:42:
                    5c:0c:f7:30:5b:fa:15:d4:b9:90:4a:39:e7:82:64:
                    9d:80:ae:8a:a7:2d:81:5b:70:c2:7c:c0:ab:d8:eb:
                    bc:cc:92:36:78:c8:d9:a2:ac:6e:da:78:ba:aa:d3:
                    7d:e6:83:73:6c:eb:a9:b8:41:77:dc:90:e1:25:df:
                    d9:e0:94:aa:8f:90:d0:19:53:5e:4a:dc:93:8e:96:
                    bb:8c:fd:65:ee:5f:c3:b9:72:eb:43:d8:73:86:a2:
                    9c:8d
                Exponent: 65537 (0x10001)
        X509v3 extensions:
            X509v3 Basic Constraints: critical
                CA:TRUE
            X509v3 Key Usage: critical
                Certificate Sign
            X509v3 Subject Key Identifier: 
                93:97:9D:E8:E7:1E:FB:58:4F:FD:0C:5C:33:BA:FB:C4:C5:67:2B:07
            X509v3 Authority Key Identifier: 
                C8:32:46:CD:45:D1:01:63:DC:1F:6C:0E:F0:A5:E0:57:D0:44:F8:30
    Signature Algorithm: sha256WithRSAEncryption
    Signature Value:
        40:f2:95:5e:fc:40:e7:b3:73:e1:cf:1c:00:e1:f2:e7:ad:cf:
        c6:d9:c6:8d:92:d7:12:85:b7:f2:ab:f5:2b:0a:de:dc:9d:f2:
        c7:86:58:21:57:7c:1b:ee:af:08:6f:8a:7b:6a:2c:d0:c8:3d:
        21:7b:70:33:08:de:c1:f6:53:e1:d4:b7:10:0a:6c:08:c2:04:
        df:db:e7:25:69:d0:0a:5e:89:73:fe:c7:fe:f1:7f:2f:f1:2f:
        f6:e0:43:90:f2:28:07:21:d8:5f:61:fa:ef:a9:71:a9:00:a9:
        40:bc:ec:6c:ab:b7:7b:46:98:87:eb:47:9e:d8:2a:5b:5c:3a:
        81:e0:29:83:e2:fe:0d:a0:4d:c5:da:6a:b7:bf:40:6f:d2:a6:
        a2:a3:90:88:a5:04:c1:ac:38:56:d9:99:17:ab:f0:ad:1e:de:
        89:2d:f7:bc:de:36:3e:b1:7f:05:b7:2a:0d:7a:8d:d3:1c:f7:
        2f:40:2c:79:7e:b9:b4:d2:58:db:bb:52:f3:be:95:75:95:35:
        d4:57:5e:a4:a3:0b:f3:37:63:75:c6:31:ed:af:b2:5d:3f:b4:
        25:52:b0:4a:db:91:f4:4e:b0:81:0c:09:bc:83:6c:dd:1e:61:
        24:df:5b:76:53:74:24:56:47:30:08:03:68:e2:03:e8:0a:bd:
        91:47:e8:42
-----BEGIN CERTIFICATE-----
MIIDeTCCAmGgAwIBAgIBFzANBgkqhkiG9w0BAQsFADBKMQswCQYDVQQGEwJJTjEW
MBQGA1UECgwNVi1LZXkgUHRlIEx0ZDEjMCEGA1UEAwwaVi1LZXkgU2VydmljZSBS
b290IENBIFJvb3QwHhcNMTIwODE1MDgwMDAwWhcNMTIwODE1MDkwMDAwWjBRMQsw
CQYDVQQGEwJJTjEWMBQGA1UECgwNVi1LZXkgUHRlIEx0ZDEqMCgGA1UEAwwhVi1L
ZXkgbGljZW5zZSBzaWduZXIgSW50ZXJtZWRpYXRlMIIBIjANBgkqhkiG9w0BAQEF
AAOCAQ8AMIIBCgKCAQEApU/BUliVIY/xe1maXo2igW/XyQ/ppwII6Xqkdom5vLyi
8B7jJhfHiiJsjYm/5go463yXDOz+3MTNES4kUp/qkFRS7MwSy41ICtEkqz4D/9dT
roaZQCBOE96NI4SkTjVw//+8gX1Di0Eq4DAcZ13snPC27rHgnbA084qdMCMeOd3b
UpA+MkdplTtFc4an+PzBesJIafiLHp0zWH2zx9oYKPFNKEJcDPcwW/oV1LmQSjnn
gmSdgK6Kpy2BW3DCfMCr2Ou8zJI2eMjZoqxu2ni6qtN95oNzbOupuEF33JDhJd/Z
4JSqj5DQGVNeStyTjpa7jP1l7l/DuXLrQ9hzhqKcjQIDAQABo2MwYTAPBgNVHRMB
Af8EBTADAQH/MA4GA1UdDwEB/wQEAwICBDAdBgNVHQ4EFgQUk5ed6Oce+1hP/Qxc
M7r7xMVnKwcwHwYDVR0jBBgwFoAUyDJGzUXRAWPcH2wO8KXgV9BE+DAwDQYJKoZI
hvcNAQELBQADggEBAEDylV78QOezc+HPHADh8uetz8bZxo2S1xKFt/Kr9SsK3tyd
8seGWCFXfBvurwhvintqLNDIPSF7cDMI3sH2U+HUtxAKbAjCBN/b5yVp0ApeiXP+
x/7xfy/xL/bgQ5DyKAch2F9h+u+pcakAqUC87Gyrt3tGmIfrR57YKltcOoHgKYPi
/g2gTcXaare/QG/SpqKjkIilBMGsOFbZmRer8K0e3okt97zeNj6xfwW3Kg16jdMc
9y9ALHl+ubTSWNu7UvO+lXWVNdRXXqSjC/M3Y3XGMe2vsl0/tCVSsErbkfROsIEM
CbyDbN0eYSTfW3ZTdCRWRzAIA2jiA+gKvZFH6EI=
-----END CERTIFICATE-----
