Certificate:
    Data:
        Version: 3 (0x2)
        Serial Number: 25 (0x19)
        Signature Algorithm: ecdsa-with-SHA256
        Issuer: C=IN, O=V-Key Pte Ltd, CN=V-Key Service Root CA Root
        Validity
            Not Before: Jul  6 11:37:37 2022 GMT
            Not After : Jul  5 11:37:37 2024 GMT
        Subject: C=IN, O=V-Key Pte Ltd, CN=V-Key license signer Intermediate
        Subject Public Key Info:
            Public Key Algorithm: id-ecPublicKey
                Public-Key: (256 bit)
                pub:
                    04:20:b4:97:95:15:5f:2c:df:3b:73:76:88:01:0f:
                    76:de:29:35:9b:b3:16:88:dc:c0:95:ec:52:d5:96:
                    2e:bc:f4:79:61:a6:47:e6:68:a8:2f:e9:d7:e2:f5:
                    67:0a:b0:1a:ac:43:f4:66:e4:c3:04:e8:1b:af:8d:
                    27:d0:a3:74:c0
                ASN1 OID: prime256v1
                NIST CURVE: P-256
        X509v3 extensions:
            X509v3 Basic Constraints: critical
                CA:TRUE
            X509v3 Key Usage: critical
                Certificate Sign
            X509v3 Subject Key Identifier: 
                6E:56:7A:64:FE:B0:58:A9:05:99:CB:6E:0D:97:DF:E4:32:08:C9:18
            X509v3 Authority Key Identifier: 
                66:E6:20:5A:A2:10:C5:A0:80:68:BD:F4:DD:D6:A3:F1:88:E3:01:E2
    Signature Algorithm: ecdsa-with-SHA256
    Signature Value:
        30:45:02:20:57:c0:0a:c4:20:44:e9:9a:20:66:ae:31:0b:45:
        6e:bd:c1:a9:56:b7:c5:0c:d0:77:f2:c4:42:31:8e:13:78:6f:
        02:21:00:ef:c5:fe:66:92:1e:5a:02:ed:5f:eb:e3:20:05:9f:
        3e:7d:e2:12:fe:2d:18:9a:1f:de:07:14:25:b5:bf:63:cc
-----BEGIN CERTIFICATE-----
MIIB7TCCAZOgAwIBAgIBGTAKBggqhkjOPQQDAjBKMQswCQYDVQQGEwJJTjEWMBQG
A1UECgwNVi1LZXkgUHRlIEx0ZDEjMCEGA1UEAwwaVi1LZXkgU2VydmljZSBSb290
IENBIFJvb3QwHhcNMjIwNzA2MTEzNzM3WhcNMjQwNzA1MTEzNzM3WjBRMQswCQYD
VQQGEwJJTjEWMBQGA1UECgwNVi1LZXkgUHRlIEx0ZDEqMCgGA1UEAwwhVi1LZXkg
bGljZW5zZSBzaWduZXIgSW50ZXJtZWRpYXRlMFkwEwYHKoZIzj0CAQYIKoZIzj0D
AQcDQgAEILSXlRVfLN87c3aIAQ923ik1m7MWiNzAlexS1ZYuvPR5YaZH5mioL+nX
4vVnCrAarEP0ZuTDBOgbr40n0KN0wKNjMGEwDwYDVR0TAQH/BAUwAwEB/zAOBgNV
HQ8BAf8EBAMCAgQwHQYDVR0OBBYEFG5WemT+sFipBZnLbg2X3+QyCMkYMB8GA1Ud
IwQYMBaAFGbmIFqiEMWggGi99N3Wo/GI4wHiMAoGCCqGSM49BAMCA0gAMEUCIFfA
CsQgROmaIGauMQtFbr3BqVa3xQzQd/LEQjGOE3hvAiEA78X+ZpIeWgLtX+vjIAWf
Pn3iEv4tGJof3gcUJbW/Y8w=
-----END CERTIFICATE-----
