Certificate:
    Data:
        Version: 3 (0x2)
        Serial Number: 26 (0x1a)
        Signature Algorithm: sha256WithRSAEncryption
        Issuer: C=IN, O=V-Key Pte Ltd, CN=V-Key Service Root CA Root
        Validity
            Not Before: Jul  6 11:57:22 2022 GMT
            Not After : Jul  5 11:57:22 2025 GMT
        Subject: C=IN, O=V-Key Pte Ltd, CN=V-Key Service Root CA Root
        Subject Public Key Info:
            Public Key Algorithm: rsaEncryption
                Public-Key: (2048 bit)
                Modulus:
                    00:bb:8f:5a:6d:8f:9c:64:40:50:1a:27:49:33:24:
                    43:2b:29:51:ac:11:0a:f6:43:56:01:fe:46:a2:bc:
                    96:98:7b:5d:51:02:80:8a:bd:a8:2b:b7:3b:8e:6d:
                    03:21:74:f6:d1:c4:a3:1a:58:1d:b0:ad:99:e8:79:
                    31:fb:4a:a8:f6:49:c6:c8:50:19:29:63:05:36:83:
                    e4:32:b3:59:1d:48:72:f7:f1:dd:a6:c2:ff:1f:6a:
                    e2:5b:3d:46:48:f0:d1:76:ae:c3:88:cc:ef:62:8b:
                    64:be:a8:36:37:f3:ef:19:7f:bd:76:73:71:73:46:
                    e9:f7:59:6b:55:73:21:88:a9:aa:33:8a:4a:52:02:
                    5e:59:25:24:83:b7:73:2e:ef:e0:dc:2a:59:89:5f:
                    22:38:c1:de:65:f9:69:fa:e1:e6:20:c8:47:56:bb:
                    8a:fc:b9:52:01:74:26:68:7e:e7:e1:24:ad:16:72:
                    4b:42:87:aa:b6:cc:06:36:dd:13:43:0a:59:4f:aa:
                    73:e8:0f:1d:2e:20:49:7a:57:cf:76:46:b3:39:42:
                    ba:1a:91:27:6a:1f:34:4e:e1:81:6e:7e:19:8b:35:
                    0a:83:6d:e4:c5:6e:4b:03:3b:86:83:6e:95:56:33:
                    e2:d2:73:60:97:52:0b:66:6b:65:6b:9e:d2:9d:07:
                    60:ab
                Exponent: 65537 (0x10001)
        X509v3 extensions:
            X509v3 Basic Constraints: critical
                CA:TRUE
            X509v3 Key Usage: critical
                Certificate Sign
            X509v3 Subject Key Identifier: 
                8A:2F:B3:8B:A7:7F:9C:3D:61:1B:12:FE:AE:8E:47:A1:02:1C:FD:68
    Signature Algorithm: sha256WithRSAEncryption
    Signature Value:
        b9:cb:78:47:55:3b:a6:99:9d:26:de:66:f5:b1:bb:2b:0f:6c:
        0c:30:69:1f:aa:6b:a3:aa:bb:3e:d1:0a:b2:96:38:5f:65:4d:
        c8:eb:a6:34:fb:d9:cb:66:ba:89:a1:13:3a:69:d6:c2:56:c8:
        a5:01:ce:a8:6f:53:34:63:de:72:59:5a:a7:6a:00:2a:eb:94:
        4b:3f:be:e5:61:3f:b4:6b:3a:bd:b5:27:90:d1:74:ad:4c:6f:
        29:28:64:a6:8e:12:e9:be:c1:27:be:67:1e:5d:0d:fa:68:b0:
        b4:6e:3c:cd:70:a8:dd:f3:e2:d0:2c:1f:61:0a:7e:d0:1b:98:
        5c:e9:e5:f0:6d:e8:a0:36:ee:32:d8:bc:4d:13:64:34:35:36:
        93:48:e8:2c:87:be:86:84:29:7c:36:c3:9c:69:84:70:66:22:
        e7:a8:17:be:b3:3f:74:5d:74:02:88:c3:52:24:76:46:c3:0b:
        3e:27:0d:8e:0f:da:01:88:b0:b8:84:1b:1c:1d:af:2d:c2:3a:
        32:6f:86:ab:8f:90:ea:29:36:69:c2:9d:3d:3c:fa:67:ad:e4:
        e2:ec:84:9b:c6:9b:b6:3e:2a:2a:7a:74:be:53:72:b4:1a:5e:
        d7:9c:ab:48:01:29:d1:46:ea:65:1e:ab:e6:c9:86:cc:7f:28:
        62:94:f9:d7
-----BEGIN CERTIFICATE-----
MIIDUTCCAjmgAwIBAgIBGjANBgkqhkiG9w0BAQsFADBKMQswCQYDVQQGEwJJTjEW
MBQGA1UECgwNVi1LZXkgUHRlIEx0ZDEjMCEGA1UEAwwaVi1LZXkgU2VydmljZSBS
b290IENBIFJvb3QwHhcNMjIwNzA2MTE1NzIyWhcNMjUwNzA1MTE1NzIyWjBKMQsw
CQYDVQQGEwJJTjEWMBQGA1UECgwNVi1LZXkgUHRlIEx0ZDEjMCEGA1UEAwwaVi1L
ZXkgU2VydmljZSBSb290IENBIFJvb3QwggEiMA0GCSqGSIb3DQEBAQUAA4IBDwAw
ggEKAoIBAQC7j1ptj5xkQFAaJ0kzJEMrKVGsEQr2Q1YB/kaivJaYe11RAoCKvagr
tzuObQMhdPbRxKMaWB2wrZnoeTH7Sqj2ScbIUBkpYwU2g+Qys1kdSHL38d2mwv8f
auJbPUZI8NF2rsOIzO9ii2S+qDY38+8Zf712c3FzRun3WWtVcyGIqaozikpSAl5Z
JSSDt3Mu7+DcKlmJXyI4wd5l+Wn64eYgyEdWu4r8uVIBdCZofufhJK0WcktCh6q2
zAY23RNDCllPqnPoDx0uIEl6V892RrM5QroakSdqHzRO4YFufhmLNQqDbeTFbksD
O4aDbpVWM+LSc2CXUgtma2VrntKdB2CrAgMBAAGjQjBAMA8GA1UdEwEB/wQFMAMB
Af8wDgYDVR0PAQH/BAQDAgIEMB0GA1UdDgQWBBSKL7OLp3+cPWEbEv6ujkehAhz9
aDANBgkqhkiG9w0BAQsFAAOCAQEAuct4R1U7ppmdJt5m9bG7Kw9sDDBpH6pro6q7
PtEKspY4X2VNyOumNPvZy2a6iaETOmnWwlbIpQHOqG9TNGPecllap2oAKuuUSz++
5WE/tGs6vbUnkNF0rUxvKShkpo4S6b7BJ75nHl0N+miwtG48zXCo3fPi0CwfYQp+
0BuYXOnl8G3ooDbuMti8TRNkNDU2k0joLIe+hoQpfDbDnGmEcGYi56gXvrM/dF10
AojDUiR2RsMLPicNjg/aAYiwuIQbHB2vLcI6Mm+Gq4+Q6ik2acKdPTz6Z63k4uyE
m8abtj4qKnp0vlNytBpe15yrSAEp0UbqZR6r5smGzH8oYpT51w==
-----END CERTIFICATE-----
