Certificate:
    Data:
        Version: 3 (0x2)
        Serial Number: 27 (0x1b)
        Signature Algorithm: sha256WithRSAEncryption
        Issuer: C=IN, O=V-Key Pte Ltd, CN=V-Key Service Root CA Root
        Validity
            Not Before: Aug 15 08:00:00 2012 GMT
            Not After : Aug 15 09:00:00 2012 GMT
        Subject: C=IN, O=V-Key Pte Ltd, CN=V-Key license signer Intermediate
        Subject Public Key Info:
            Public Key Algorithm: rsaEncryption
                Public-Key: (2048 bit)
                Modulus:
                    00:9d:86:7b:23:ab:55:a7:9f:57:d0:31:2d:10:64:
                    a6:66:ec:0f:c2:49:0e:10:fe:ef:2b:e3:99:f9:ee:
                    2e:ca:a1:0b:0e:42:ca:2a:20:eb:ff:2c:e9:a4:91:
                    14:25:e5:02:b1:16:1c:c2:2e:8a:88:2e:4c:32:9a:
                    49:3e:f4:bc:c2:8b:31:67:cc:c9:b2:8f:83:fd:9a:
                    8a:03:24:4e:b0:33:21:20:e2:41:15:11:60:7f:20:
                    29:4d:21:54:d9:17:d6:a1:47:39:81:98:00:15:6d:
                    a1:96:8f:24:3f:31:b4:62:7c:73:47:00:a2:95:1e:
                    dd:0d:27:27:6c:1f:f6:4d:29:8d:d7:e8:c8:55:04:
                    2f:ed:44:1e:2b:17:64:ab:ff:05:cd:47:c7:ab:bb:
                    0b:65:37:44:09:a0:86:57:fb:61:80:5d:43:48:37:
                    bf:33:3f:0e:f7:f6:8e:98:0f:32:f9:19:d4:d1:f7:
                    4b:84:e1:b9:bf:f2:81:ce:61:6f:07:48:7a:3f:16:
                    b2:05:2a:98:cc:e1:5d:cb:1a:6e:03:69:b7:f7:22:
                    ca:6b:69:e3:ce:15:65:9b:64:3d:09:43:25:50:18:
                    93:e0:9b:df:67:a4:14:b8:eb:28:0d:5c:ef:09:c1:
                    04:f3:19:67:84:81:4c:24:72:2d:4e:80:35:9e:8d:
                    9b:a1
                Exponent: 65537 (0x10001)
        X509v3 extensions:
            X509v3 Basic Constraints: critical
                CA:TRUE
            X509v3 Key Usage: critical
                Certificate Sign
            X509v3 Subject Key Identifier: 
                9A:16:68:99:88:2B:58:2A:E1:1F:09:E3:A9:60:49:B7:5A:09:A6:5D
            X509v3 Authority Key Identifier: 
                8A:2F:B3:8B:A7:7F:9C:3D:61:1B:12:FE:AE:8E:47:A1:02:1C:FD:68
    Signature Algorithm: sha256WithRSAEncryption
    Signature Value:
        24:8e:11:c0:54:55:1e:64:fe:32:44:06:f3:0b:6f:d2:81:a3:
        02:08:84:64:4f:d7:88:76:4f:2b:37:20:0a:0a:02:45:a5:02:
        87:62:d7:75:46:9e:ec:de:92:7d:bf:44:9c:43:c7:0d:3f:72:
        61:d6:e7:a0:f0:65:8d:45:f1:25:4d:35:7c:2a:2c:59:08:e8:
        d5:cf:38:21:ea:1c:48:e2:51:fb:58:b4:71:20:dd:21:76:ab:
        9b:10:6d:4a:1c:1c:cf:e0:03:fd:c7:c5:9e:c3:8b:4a:b6:76:
        74:0a:c1:ac:e5:a0:c1:dc:22:27:24:9b:b0:31:03:7b:39:4c:
        63:01:c0:50:37:9f:81:30:9a:2f:fd:3e:73:dd:9c:aa:7f:64:
        3c:7b:73:84:2f:fc:12:13:1b:e7:82:28:e5:fe:80:47:d3:1e:
        a1:eb:42:f7:15:0d:0b:4c:e4:3f:78:ec:51:2b:a4:23:ad:7e:
        62:a9:d2:ec:ea:70:a1:ef:56:62:10:c0:ab:11:b2:29:7c:df:
        48:a0:fc:cb:d1:cb:e3:5e:c3:58:6d:12:cc:ed:d5:07:08:1b:
        21:a9:f6:3b:df:8f:74:91:b8:bf:36:97:65:9e:39:b0:38:a4:
        94:66:6e:e0:48:5e:e2:ac:7c:10:e7:c5:3e:c1:21:ef:75:8a:
        c6:18:ae:2e
-----BEGIN CERTIFICATE-----
MIIDeTCCAmGgAwIBAgIBGzANBgkqhkiG9w0BAQsFADBKMQswCQYDVQQGEwJJTjEW
MBQGA1UECgwNVi1LZXkgUHRlIEx0ZDEjMCEGA1UEAwwaVi1LZXkgU2VydmljZSBS
b290IENBIFJvb3QwHhcNMTIwODE1MDgwMDAwWhcNMTIwODE1MDkwMDAwWjBRMQsw
CQYDVQQGEwJJTjEWMBQGA1UECgwNVi1LZXkgUHRlIEx0ZDEqMCgGA1UEAwwhVi1L
ZXkgbGljZW5zZSBzaWduZXIgSW50ZXJtZWRpYXRlMIIBIjANBgkqhkiG9w0BAQEF
AAOCAQ8AMIIBCgKCAQEAnYZ7I6tVp59X0DEtEGSmZuwPwkkOEP7vK+OZ+e4uyqEL
DkLKKiDr/yzppJEUJeUCsRYcwi6KiC5MMppJPvS8wosxZ8zJso+D/ZqKAyROsDMh
IOJBFRFgfyApTSFU2RfWoUc5gZgAFW2hlo8kPzG0YnxzRwCilR7dDScnbB/2TSmN
1+jIVQQv7UQeKxdkq/8FzUfHq7sLZTdECaCGV/thgF1DSDe/Mz8O9/aOmA8y+RnU
0fdLhOG5v/KBzmFvB0h6PxayBSqYzOFdyxpuA2m39yLKa2njzhVlm2Q9CUMlUBiT
4JvfZ6QUuOsoDVzvCcEE8xlnhIFMJHItToA1no2boQIDAQABo2MwYTAPBgNVHRMB
Af8EBTADAQH/MA4GA1UdDwEB/wQEAwICBDAdBgNVHQ4EFgQUmhZomYgrWCrhHwnj
qWBJt1oJpl0wHwYDVR0jBBgwFoAUii+zi6d/nD1hGxL+ro5HoQIc/WgwDQYJKoZI
hvcNAQELBQADggEBACSOEcBUVR5k/jJEBvMLb9KBowIIhGRP14h2Tys3IAoKAkWl
Aodi13VGnuzekn2/RJxDxw0/cmHW56DwZY1F8SVNNXwqLFkI6NXPOCHqHEjiUftY
tHEg3SF2q5sQbUocHM/gA/3HxZ7Di0q2dnQKwazloMHcIickm7AxA3s5TGMBwFA3
n4Ewmi/9PnPdnKp/ZDx7c4Qv/BITG+eCKOX+gEfTHqHrQvcVDQtM5D947FErpCOt
fmKp0uzqcKHvVmIQwKsRsil830ig/MvRy+New1htEszt1QcIGyGp9jvfj3SRuL82
l2WeObA4pJRmbuBIXuKsfBDnxT7BIe91isYYri4=
-----END CERTIFICATE-----
