Certificate:
    Data:
        Version: 3 (0x2)
        Serial Number: 28 (0x1c)
        Signature Algorithm: sha256WithRSAEncryption
        Issuer: C=IN, O=V-Key Pte Ltd, CN=V-Key Service Root CA Root
        Validity
            Not Before: Jul  6 11:57:55 2022 GMT
            Not After : Jul  5 11:57:55 2025 GMT
        Subject: C=IN, O=V-Key Pte Ltd, CN=V-Key Service Root CA Root
        Subject Public Key Info:
            Public Key Algorithm: rsaEncryption
                Public-Key: (2048 bit)
                Modulus:
                    00:91:6a:01:26:26:aa:ca:25:77:b0:7f:4b:dd:e5:
                    aa:28:90:c1:83:c2:5a:40:f0:60:64:5b:a3:54:43:
                    65:f0:04:b5:46:a9:28:08:4d:de:a2:e9:07:fd:26:
                    5b:a4:66:e1:dd:3c:42:7f:b1:dc:16:55:a7:26:2f:
                    f6:27:76:3c:2d:23:59:3d:3a:99:9d:91:d5:07:ed:
                    66:0c:eb:8f:4d:45:c8:24:f1:d7:6e:70:03:0f:85:
                    59:04:c4:d0:fc:0a:34:15:be:41:fa:0a:44:12:e6:
                    f6:37:a3:da:7c:19:6b:0f:89:d6:58:db:04:38:75:
                    f1:93:70:51:ca:6d:a4:dd:a4:6e:94:e5:4f:4a:9e:
                    76:6c:cf:52:9b:46:de:75:de:3d:79:76:e3:e2:ac:
                    10:15:be:fa:df:df:1b:2e:8f:0d:0b:f2:eb:37:78:
                    95:95:8d:b3:52:2e:12:a2:92:9e:10:14:bf:42:98:
                    0a:6a:52:bb:fd:02:0c:ed:93:fb:b6:3d:0c:49:49:
                    be:45:33:8f:93:8e:b6:78:0e:5d:15:23:94:dd:d5:
                    cd:5a:73:79:47:f2:39:97:98:14:64:f4:33:58:a4:
                    cb:25:02:7f:d7:7c:b3:53:b2:21:f7:fa:80:3b:c3:
                    3d:57:71:21:c0:cf:2b:bd:87:4c:62:0b:27:fe:74:
                    f6:bf
                Exponent: 65537 (0x10001)
        X509v3 extensions:
            X509v3 Basic Constraints: critical
                CA:TRUE
            X509v3 Key Usage: critical
                Certificate Sign
            X509v3 Subject Key Identifier: 
                B4:7C:3C:50:9F:A0:35:CD:DC:86:40:DC:51:7D:0A:5E:8E:35:BA:46
    Signature Algorithm: sha256WithRSAEncryption
    Signature Value:
        08:fd:f2:83:9f:c4:47:85:50:67:8d:9c:62:8a:a9:0e:6b:56:
        2a:c3:6c:29:aa:87:63:95:45:a8:21:a8:c0:c5:52:01:59:7d:
        3b:b9:a9:80:c7:16:5e:11:eb:13:96:34:da:c7:63:7b:39:3c:
        af:bf:20:d1:36:d1:1c:47:a0:cc:4e:37:03:90:27:66:26:1e:
        4b:87:80:81:12:d1:ac:ea:78:be:0c:97:ed:63:0f:79:33:7b:
        d5:35:8f:a6:08:92:50:02:aa:05:0f:62:b0:86:19:c2:60:cf:
        05:eb:75:3f:d7:48:a8:61:3a:aa:39:40:e9:51:2b:79:d5:51:
        4f:97:98:25:fd:39:b6:af:5b:55:3a:e1:7f:4d:b1:a0:c3:da:
        3d:77:bd:ac:ff:33:1a:93:6c:d5:3e:f5:cf:f1:8b:1f:fa:a0:
        00:1d:3b:90:58:a3:30:d2:79:20:e7:85:68:a1:09:47:71:ac:
        b4:84:05:d6:a8:26:ab:74:64:14:df:13:8d:89:a9:ff:a0:fc:
        a3:5d:bf:29:9f:66:11:a5:70:c1:3c:59:07:3d:0c:a2:68:84:
        42:8b:76:39:d8:85:b4:81:16:92:b6:7f:7d:3d:bb:e2:b2:72:
        58:ec:a6:ae:b9:3d:4f:9a:1d:cf:24:cc:e8:a7:06:4c:46:0d:
        fc:d8:d0:67
-----BEGIN CERTIFICATE-----
MIIDUTCCAjmgAwIBAgIBHDANBgkqhkiG9w0BAQsFADBKMQswCQYDVQQGEwJJTjEW
MBQGA1UECgwNVi1LZXkgUHRlIEx0ZDEjMCEGA1UEAwwaVi1LZXkgU2VydmljZSBS
b290IENBIFJvb3QwHhcNMjIwNzA2MTE1NzU1WhcNMjUwNzA1MTE1NzU1WjBKMQsw
CQYDVQQGEwJJTjEWMBQGA1UECgwNVi1LZXkgUHRlIEx0ZDEjMCEGA1UEAwwaVi1L
ZXkgU2VydmljZSBSb290IENBIFJvb3QwggEiMA0GCSqGSIb3DQEBAQUAA4IBDwAw
ggEKAoIBAQCRagEmJqrKJXewf0vd5aookMGDwlpA8GBkW6NUQ2XwBLVGqSgITd6i
6Qf9JlukZuHdPEJ/sdwWVacmL/YndjwtI1k9OpmdkdUH7WYM649NRcgk8dducAMP
hVkExND8CjQVvkH6CkQS5vY3o9p8GWsPidZY2wQ4dfGTcFHKbaTdpG6U5U9KnnZs
z1KbRt513j15duPirBAVvvrf3xsujw0L8us3eJWVjbNSLhKikp4QFL9CmApqUrv9
Agztk/u2PQxJSb5FM4+TjrZ4Dl0VI5Td1c1ac3lH8jmXmBRk9DNYpMslAn/XfLNT
siH3+oA7wz1XcSHAzyu9h0xiCyf+dPa/AgMBAAGjQjBAMA8GA1UdEwEB/wQFMAMB
Af8wDgYDVR0PAQH/BAQDAgIEMB0GA1UdDgQWBBS0fDxQn6A1zdyGQNxRfQpejjW6
RjANBgkqhkiG9w0BAQsFAAOCAQEACP3yg5/ER4VQZ42cYoqpDmtWKsNsKaqHY5VF
qCGowMVSAVl9O7mpgMcWXhHrE5Y02sdjezk8r78g0TbRHEegzE43A5AnZiYeS4eA
gRLRrOp4vgyX7WMPeTN71TWPpgiSUAKqBQ9isIYZwmDPBet1P9dIqGE6qjlA6VEr
edVRT5eYJf05tq9bVTrhf02xoMPaPXe9rP8zGpNs1T71z/GLH/qgAB07kFijMNJ5
IOeFaKEJR3GstIQF1qgmq3RkFN8TjYmp/6D8o12/KZ9mEaVwwTxZBz0MomiEQot2
OdiFtIEWkrZ/fT274rJyWOymrrk9T5odzyTM6KcGTEYN/NjQZw==
-----END CERTIFICATE-----
