Certificate:
    Data:
        Version: 3 (0x2)
        Serial Number: 29 (0x1d)
        Signature Algorithm: sha256WithRSAEncryption
        Issuer: C=IN, O=V-Key Pte Ltd, CN=V-Key Service Root CA Root
        Validity
            Not Before: Jul  6 11:57:56 2022 GMT
            Not After : Jul  5 11:57:56 2024 GMT
        Subject: C=IN, O=V-Key Pte Ltd, CN=V-Key license signer Intermediate
        Subject Public Key Info:
            Public Key Algorithm: rsaEncryption
                Public-Key: (2048 bit)
                Modulus:
                    00:cd:19:10:c0:30:2e:c8:fa:6a:24:8f:82:14:63:
                    91:d7:8b:f4:5e:60:e1:a4:4d:9f:6a:56:78:34:23:
                    d4:ed:c6:75:28:58:a9:6b:fc:c7:7a:b3:59:f5:d7:
                    c0:0a:af:7b:8b:8e:86:d7:73:55:65:8b:1d:ea:06:
                    a5:aa:e6:e5:5e:42:f7:80:43:3a:7a:2c:c7:7e:13:
                    71:15:e3:c4:0c:15:dc:b1:c8:71:8e:fc:27:7d:ae:
                    1b:09:83:03:95:9f:32:69:1e:8d:86:6f:c9:a0:50:
                    e8:de:c9:dc:03:fd:35:92:a8:e0:ca:3b:b6:37:42:
                    49:99:02:a8:06:23:c3:fb:8d:ec:34:3f:4f:f9:cb:
                    0f:d1:33:72:ea:0a:e5:83:3e:26:92:32:3b:9f:ea:
                    15:97:d7:af:dc:cc:29:09:ef:4d:bf:e1:31:89:67:
                    7d:c5:9d:72:b9:ef:f1:8d:59:dc:8d:cd:69:e8:1f:
                    01:0b:32:09:51:8f:54:41:a7:31:c1:16:80:af:fe:
                    27:ef:95:a8:9c:c0:68:6a:e2:4f:26:e6:45:46:e4:
                    12:b7:b4:5e:f6:4a:6f:e7:d1:ac:6e:92:1b:e1:83:
                    d7:d1:85:de:d4:07:c0:b5:91:36:2e:78:fc:df:ba:
                    6e:f8:22:09:2b:f3:18:a2:2f:2f:03:f3:ff:b1:62:
                    61:97
                Exponent: 65537 (0x10001)
        X509v3 extensions:
            X509v3 Basic Constraints: critical
                CA:TRUE
            X509v3 Key Usage: critical
                Certificate Sign
            X509v3 Subject Key Identifier: 
                A4:B4:59:A7:05:C7:6D:E6:C9:E5:84:0E:E0:CC:D4:2E:13:15:B1:12
            X509v3 Authority Key Identifier: 
                B4:7C:3C:50:9F:A0:35:CD:DC:86:40:DC:51:7D:0A:5E:8E:35:BA:46
    Signature Algorithm: sha256WithRSAEncryption
    Signature Value:
        33:f5:11:5b:00:e0:95:88:1a:e4:15:e5:a0:18:ad:40:6c:a6:
        ba:39:77:a0:54:43:8b:e7:3f:8a:72:0e:99:65:1b:7d:91:bc:
        b6:bd:5c:bf:fb:89:58:66:20:cd:99:49:b1:dc:4a:07:48:2d:
        99:6d:42:bc:00:7d:5d:72:9d:eb:c5:48:db:b8:96:b9:b5:dc:
        36:02:89:df:40:b0:9b:c7:40:77:e6:7a:87:f1:15:b1:d1:02:
        f4:18:45:c6:9e:b1:9e:71:a8:b3:d2:53:83:5d:1b:1b:a6:da:
        3a:c4:78:11:93:c4:e4:98:f1:64:f8:89:08:93:1f:20:97:fa:
        98:a9:c3:df:7c:91:17:09:06:eb:0b:64:44:de:3c:0b:a6:0f:
        85:30:61:d4:31:51:78:6c:94:9c:37:d8:f9:2b:c5:80:0d:60:
        ac:65:3b:14:aa:ab:99:84:77:8c:98:2e:f9:9b:d0:93:52:48:
        91:13:f8:d1:0e:55:85:11:86:80:ee:23:d4:09:2f:9a:ee:ba:
        5d:0f:00:02:f0:01:1d:d8:78:09:83:9c:5e:f4:aa:17:f3:db:
        29:37:23:cc:76:25:59:22:02:d3:c8:9f:f7:87:09:55:ea:11:
        8c:34:e4:d2:13:f7:ac:88:02:0d:e7:08:e3:49:7d:5f:34:6f:
        2b:8d:5f:52
-----BEGIN CERTIFICATE-----
MIIDeTCCAmGgAwIBAgIBHTANBgkqhkiG9w0BAQsFADBKMQswCQYDVQQGEwJJTjEW
MBQGA1UECgwNVi1LZXkgUHRlIEx0ZDEjMCEGA1UEAwwaVi1LZXkgU2VydmljZSBS
b290IENBIFJvb3QwHhcNMjIwNzA2MTE1NzU2WhcNMjQwNzA1MTE1NzU2WjBRMQsw
CQYDVQQGEwJJTjEWMBQGA1UECgwNVi1LZXkgUHRlIEx0ZDEqMCgGA1UEAwwhVi1L
ZXkgbGljZW5zZSBzaWduZXIgSW50ZXJtZWRpYXRlMIIBIjANBgkqhkiG9w0BAQEF
AAOCAQ8AMIIBCgKCAQEAzRkQwDAuyPpqJI+CFGOR14v0XmDhpE2falZ4NCPU7cZ1
KFipa/zHerNZ9dfACq97i46G13NVZYsd6galqublXkL3gEM6eizHfhNxFePEDBXc
schxjvwnfa4bCYMDlZ8yaR6Nhm/JoFDo3sncA/01kqjgyju2N0JJmQKoBiPD+43s
ND9P+csP0TNy6grlgz4mkjI7n+oVl9ev3MwpCe9Nv+ExiWd9xZ1yue/xjVncjc1p
6B8BCzIJUY9UQacxwRaAr/4n75WonMBoauJPJuZFRuQSt7Re9kpv59GsbpIb4YPX
0YXe1AfAtZE2Lnj837pu+CIJK/MYoi8vA/P/sWJhlwIDAQABo2MwYTAPBgNVHRMB
Af8EBTADAQH/MA4GA1UdDwEB/wQEAwICBDAdBgNVHQ4EFgQUpLRZpwXHbebJ5YQO
4MzULhMVsRIwHwYDVR0jBBgwFoAUtHw8UJ+gNc3chkDcUX0KXo41ukYwDQYJKoZI
hvcNAQELBQADggEBADP1EVsA4JWIGuQV5aAYrUBspro5d6BUQ4vnP4pyDpllG32R
vLa9XL/7iVhmIM2ZSbHcSgdILZltQrwAfV1ynevFSNu4lrm13DYCid9AsJvHQHfm
eofxFbHRAvQYRcaesZ5xqLPSU4NdGxum2jrEeBGTxOSY8WT4iQiTHyCX+pipw998
kRcJBusLZETePAumD4UwYdQxUXhslJw32PkrxYANYKxlOxSqq5mEd4yYLvmb0JNS
SJET+NEOVYURhoDuI9QJL5ruul0PAALwAR3YeAmDnF70qhfz2yk3I8x2JVkiAtPI
n/eHCVXqEYw05NIT96yIAg3nCONJfV80byuNX1I=
-----END CERTIFICATE-----
