Certificate:
    Data:
        Version: 3 (0x2)
        Serial Number: 30 (0x1e)
        Signature Algorithm: sha256WithRSAEncryption
        Issuer: C=IN, O=V-Key Pte Ltd, CN=V-Key Service Root CA Root
        Validity
            Not Before: Jul  6 11:57:59 2022 GMT
            Not After : Jul  5 11:57:59 2025 GMT
        Subject: C=IN, O=V-Key Pte Ltd, CN=V-Key Service Root CA Root
        Subject Public Key Info:
            Public Key Algorithm: rsaEncryption
                Public-Key: (2048 bit)
                Modulus:
                    00:ad:d5:bc:be:6d:fc:69:2a:04:16:48:c7:17:22:
                    f4:f3:63:34:bf:5e:0c:86:3a:4d:43:bd:b1:42:94:
                    bf:9b:e2:24:5a:00:4e:41:5b:04:19:6f:91:10:9a:
                    ed:c2:84:a3:3e:04:d7:f4:39:f1:a7:d6:c6:ea:63:
                    f3:05:45:3e:b0:00:d6:83:8c:67:d0:ee:a6:6b:33:
                    bc:8f:64:d8:ba:a0:bd:96:42:09:b5:6f:5c:5e:42:
                    01:ad:64:54:2c:a0:92:f3:c5:c6:97:9a:4f:f5:a5:
                    1f:11:53:22:08:76:ab:6c:9d:6d:16:da:d1:f7:17:
                    1c:f3:56:92:2b:05:db:a1:05:30:aa:19:e8:65:59:
                    4f:2b:fd:8c:e9:ac:b9:2e:5c:f9:ba:f5:65:38:b0:
                    c9:cb:ce:18:71:45:22:27:39:39:39:10:50:8b:04:
                    0e:0b:32:d7:f5:fe:d0:fb:ae:71:45:78:3a:59:b0:
                    99:12:c2:25:d6:49:31:17:f2:7a:d7:03:57:a5:a8:
                    44:00:23:ad:4c:63:48:0d:1f:17:e8:1e:35:fc:5b:
                    69:df:f9:fc:ed:2a:26:83:d0:22:79:ae:14:b6:05:
                    a8:71:63:27:2c:b8:9f:da:af:cc:88:c3:47:0e:de:
                    d1:05:75:90:89:88:2c:21:aa:ac:50:6f:0b:64:24:
                    bc:69
                Exponent: 65537 (0x10001)
        X509v3 extensions:
            X509v3 Basic Constraints: critical
                CA:TRUE
            X509v3 Key Usage: critical
                Certificate Sign
            X509v3 Subject Key Identifier: 
                DD:37:A1:27:7E:D1:8B:86:86:1D:34:C9:E4:E9:6D:48:9D:0A:C0:3C
    Signature Algorithm: sha256WithRSAEncryption
    Signature Value:
        38:15:96:64:f4:0e:7e:63:02:2e:91:c2:e8:8c:05:3d:8a:01:
        fe:e7:53:74:75:86:d3:70:71:9f:c0:3c:8d:1f:8c:af:20:7d:
        37:57:43:1d:ce:b3:e7:5c:31:8a:77:12:78:bb:56:95:d3:8f:
        48:b3:12:59:2c:cf:1e:d0:65:8d:a3:1c:d0:ca:ca:61:a7:92:
        1e:4c:69:ed:39:b3:d2:cd:f0:d5:ee:78:77:80:7a:78:af:3c:
        d8:b4:35:31:85:22:52:31:91:64:43:d3:56:17:a9:cc:36:7b:
        5b:d2:3e:cb:46:6c:dd:1e:b7:72:bc:04:f1:1c:35:30:6e:b9:
        fc:1a:aa:3d:ff:e9:b1:1f:91:3a:45:75:89:12:55:b0:04:f9:
        d9:52:5f:b3:12:9c:1d:9c:0c:b5:bc:6d:7f:15:17:3b:be:b0:
        71:e6:6f:6b:8d:5d:58:45:4c:bf:95:8f:5c:fe:19:9d:62:21:
        60:c6:c9:75:1c:09:a8:3c:e7:34:3e:a1:97:af:a5:c0:36:78:
        36:2e:98:d9:78:05:15:f0:d0:1d:79:94:f9:9e:db:db:f6:91:
        88:49:2b:73:be:fe:90:ce:6f:74:4b:70:64:3e:86:1d:19:bd:
        ac:41:61:2b:dc:5e:cf:f2:c4:a2:76:b4:9a:6a:57:76:34:9d:
        96:52:37:59
-----BEGIN CERTIFICATE-----
MIIDUTCCAjmgAwIBAgIBHjANBgkqhkiG9w0BAQsFADBKMQswCQYDVQQGEwJJTjEW
MBQGA1UECgwNVi1LZXkgUHRlIEx0ZDEjMCEGA1UEAwwaVi1LZXkgU2VydmljZSBS
b290IENBIFJvb3QwHhcNMjIwNzA2MTE1NzU5WhcNMjUwNzA1MTE1NzU5WjBKMQsw
CQYDVQQGEwJJTjEWMBQGA1UECgwNVi1LZXkgUHRlIEx0ZDEjMCEGA1UEAwwaVi1L
ZXkgU2VydmljZSBSb290IENBIFJvb3QwggEiMA0GCSqGSIb3DQEBAQUAA4IBDwAw
ggEKAoIBAQCt1by+bfxpKgQWSMcXIvTzYzS/XgyGOk1DvbFClL+b4iRaAE5BWwQZ
b5EQmu3ChKM+BNf0OfGn1sbqY/MFRT6wANaDjGfQ7qZrM7yPZNi6oL2WQgm1b1xe
QgGtZFQsoJLzxcaXmk/1pR8RUyIIdqtsnW0W2tH3FxzzVpIrBduhBTCqGehlWU8r
/YzprLkuXPm69WU4sMnLzhhxRSInOTk5EFCLBA4LMtf1/tD7rnFFeDpZsJkSwiXW
STEX8nrXA1elqEQAI61MY0gNHxfoHjX8W2nf+fztKiaD0CJ5rhS2BahxYycsuJ/a
r8yIw0cO3tEFdZCJiCwhqqxQbwtkJLxpAgMBAAGjQjBAMA8GA1UdEwEB/wQFMAMB
Af8wDgYDVR0PAQH/BAQDAgIEMB0GA1UdDgQWBBTdN6EnftGLhoYdNMnk6W1InQrA
PDANBgkqhkiG9w0BAQsFAAOCAQEAOBWWZPQOfmMCLpHC6IwFPYoB/udTdHWG03Bx
n8A8jR+MryB9N1dDHc6z51wxincSeLtWldOPSLMSWSzPHtBljaMc0MrKYaeSHkxp
7Tmz0s3w1e54d4B6eK882LQ1MYUiUjGRZEPTVhepzDZ7W9I+y0Zs3R63crwE8Rw1
MG65/BqqPf/psR+ROkV1iRJVsAT52VJfsxKcHZwMtbxtfxUXO76wceZva41dWEVM
v5WPXP4ZnWIhYMbJdRwJqDznND6hl6+lwDZ4Ni6Y2XgFFfDQHXmU+Z7b2/aRiEkr
c77+kM5vdEtwZD6GHRm9rEFhK9xez/LEona0mmpXdjSdllI3WQ==
-----END CERTIFICATE-----
