Certificate:
    Data:
        Version: 3 (0x2)
        Serial Number: 31 (0x1f)
        Signature Algorithm: sha256WithRSAEncryption
        Issuer: C=IN, O=V-Key Pte Ltd, CN=V-Key Service Root CA Root
        Validity
            Not Before: Jul  6 11:58:00 2022 GMT
            Not After : Jul  5 11:58:00 2024 GMT
        Subject: C=IN, O=V-Key Pte Ltd, CN=V-Key license signer Intermediate
        Subject Public Key Info:
            Public Key Algorithm: rsaEncryption
                Public-Key: (2048 bit)
                Modulus:
                    00:bf:e6:ab:99:a9:ef:dc:fb:53:83:78:c0:36:aa:
                    6a:28:23:2c:ea:c0:d2:52:76:1c:35:75:cf:7d:fd:
                    2d:fc:d5:4b:c1:ed:85:9b:6b:a0:1a:b8:eb:76:e6:
                    05:1e:28:f1:f3:cb:20:93:2b:e0:bd:46:e4:b9:cb:
                    32:ec:76:09:f6:96:07:55:b0:c8:2e:3d:09:b5:b5:
                    78:eb:1a:89:be:e9:19:2a:b2:42:a6:c2:b6:25:85:
                    22:12:a0:da:0f:b4:61:55:a6:c1:bf:1a:6a:7a:57:
                    ba:9c:53:10:36:fd:36:a0:d5:c0:1e:05:d3:c1:e1:
                    57:62:72:c0:10:a6:43:84:cc:f7:2f:02:bc:fa:4a:
                    d3:09:0c:ad:2d:93:e2:e8:88:f9:03:5c:23:83:59:
                    60:4b:a5:de:09:b8:36:2e:7a:f3:ca:4e:35:35:6e:
                    6a:f4:3b:8e:cf:4a:ec:35:32:cf:f4:cc:e9:ce:25:
                    ae:54:d9:5a:c6:df:a8:82:7e:e5:9d:de:e3:ec:a8:
                    f1:ba:72:fd:50:db:67:23:cc:9c:49:f9:06:95:ea:
                    08:73:47:c4:59:85:8a:8d:33:8d:51:e7:ed:3e:b7:
                    10:c6:f1:a5:01:3f:30:49:1c:0f:1c:a2:8d:ee:e2:
                    30:f9:54:ab:6f:e9:89:a8:09:5b:a6:33:da:71:ce:
                    0a:69
                Exponent: 65537 (0x10001)
        X509v3 extensions:
            X509v3 Basic Constraints: critical
                CA:TRUE
            X509v3 Key Usage: critical
                Certificate Sign
            X509v3 Subject Key Identifier: 
                E3:4D:A4:FE:E0:E9:8E:C0:76:1A:B0:F8:1D:3B:FF:71:E8:6B:62:C9
            X509v3 Authority Key Identifier: 
                DD:37:A1:27:7E:D1:8B:86:86:1D:34:C9:E4:E9:6D:48:9D:0A:C0:3C
    Signature Algorithm: sha256WithRSAEncryption
    Signature Value:
        02:fb:1d:cf:32:2d:bd:4f:e2:85:6e:39:dd:54:f5:e2:7a:64:
        4e:7e:f4:f0:46:85:06:a6:c3:5e:e1:81:3b:a4:02:0a:2e:fc:
        fc:39:68:63:61:a1:6c:b4:c0:61:e7:c0:b7:63:95:3d:39:d1:
        c4:9d:fe:a5:ca:ee:da:99:7a:88:16:29:84:8f:e2:ff:9d:9b:
        96:72:d0:35:ee:16:ef:72:cc:6f:5d:a0:e3:60:af:0a:e6:8a:
        ef:1e:68:42:ed:9e:f8:78:b9:54:da:d9:77:ec:40:85:22:34:
        3f:d1:e9:c1:48:fb:0f:90:25:3a:64:a6:ed:72:1a:2f:7b:8e:
        ee:b1:e6:91:81:be:23:0c:43:6c:2d:fa:b7:08:6a:69:69:e2:
        05:0b:94:84:22:d8:d8:5a:7b:dc:7d:5f:4b:6b:0b:85:d3:16:
        bb:63:3b:c5:d5:fd:5c:48:f1:f2:1c:a2:5b:fe:3f:58:3a:c6:
        e0:b6:2f:2a:4a:d2:d7:0d:0a:7f:78:4f:19:02:91:96:10:f6:
        d2:f6:ab:17:94:03:dd:ca:84:a0:bf:5d:76:75:21:d3:79:70:
        8c:95:3b:5b:c8:8a:3c:ce:ab:dc:f6:30:7e:c2:5c:b0:cf:36:
        9a:1c:85:22:cc:d9:2a:99:db:51:c2:6a:0b:83:ab:6b:75:c4:
        36:9c:a3:fc
-----BEGIN CERTIFICATE-----
MIIDeTCCAmGgAwIBAgIBHzANBgkqhkiG9w0BAQsFADBKMQswCQYDVQQGEwJJTjEW
MBQGA1UECgwNVi1LZXkgUHRlIEx0ZDEjMCEGA1UEAwwaVi1LZXkgU2VydmljZSBS
b290IENBIFJvb3QwHhcNMjIwNzA2MTE1ODAwWhcNMjQwNzA1MTE1ODAwWjBRMQsw
CQYDVQQGEwJJTjEWMBQGA1UECgwNVi1LZXkgUHRlIEx0ZDEqMCgGA1UEAwwhVi1L
ZXkgbGljZW5zZSBzaWduZXIgSW50ZXJtZWRpYXRlMIIBIjANBgkqhkiG9w0BAQEF
AAOCAQ8AMIIBCgKCAQEAv+armanv3PtTg3jANqpqKCMs6sDSUnYcNXXPff0t/NVL
we2Fm2ugGrjrduYFHijx88sgkyvgvUbkucsy7HYJ9pYHVbDILj0JtbV46xqJvukZ
KrJCpsK2JYUiEqDaD7RhVabBvxpqele6nFMQNv02oNXAHgXTweFXYnLAEKZDhMz3
LwK8+krTCQytLZPi6Ij5A1wjg1lgS6XeCbg2Lnrzyk41NW5q9DuOz0rsNTLP9Mzp
ziWuVNlaxt+ogn7lnd7j7KjxunL9UNtnI8ycSfkGleoIc0fEWYWKjTONUeftPrcQ
xvGlAT8wSRwPHKKN7uIw+VSrb+mJqAlbpjPacc4KaQIDAQABo2MwYTAPBgNVHRMB
Af8EBTADAQH/MA4GA1UdDwEB/wQEAwICBDAdBgNVHQ4EFgQU402k/uDpjsB2GrD4
HTv/cehrYskwHwYDVR0jBBgwFoAU3TehJ37Ri4aGHTTJ5OltSJ0KwDwwDQYJKoZI
hvcNAQELBQADggEBAAL7Hc8yLb1P4oVuOd1U9eJ6ZE5+9PBGhQamw17hgTukAgou
/Pw5aGNhoWy0wGHnwLdjlT050cSd/qXK7tqZeogWKYSP4v+dm5Zy0DXuFu9yzG9d
oONgrwrmiu8eaELtnvh4uVTa2XfsQIUiND/R6cFI+w+QJTpkpu1yGi97ju6x5pGB
viMMQ2wt+rcIamlp4gULlIQi2Nhae9x9X0trC4XTFrtjO8XV/VxI8fIcolv+P1g6
xuC2LypK0tcNCn94TxkCkZYQ9tL2qxeUA93KhKC/XXZ1IdN5cIyVO1vIijzOq9z2
MH7CXLDPNpochSLM2SqZ21HCaguDq2t1xDaco/w=
-----END CERTIFICATE-----
