Certificate:
    Data:
        Version: 1 (0x0)
        Serial Number: 9 (0x9)
        Signature Algorithm: ecdsa-with-SHA256
        Issuer: C=IN, O=V-Key Pte Ltd, CN=V-Key license signer Intermediate
        Validity
            Not Before: Jul  6 11:37:38 2022 GMT
            Not After : Jul  6 11:37:38 2023 GMT
        Subject: C=IN, O=V-Key Pte Ltd, CN=V-Key license signer Leaf
        Subject Public Key Info:
            Public Key Algorithm: id-ecPublicKey
                Public-Key: (256 bit)
                pub:
                    04:f0:5c:6c:f7:67:11:32:81:14:4b:21:39:d7:dd:
                    e8:29:5d:2a:8e:cf:c3:e3:b1:95:20:ed:b5:01:b0:
                    4b:35:8e:7e:88:0d:f3:27:1d:04:e5:b3:09:6b:c0:
                    44:36:06:54:7e:4a:2a:21:d5:55:70:6b:2c:00:13:
                    a4:14:f4:c9:a5
                ASN1 OID: prime256v1
                NIST CURVE: P-256
    Signature Algorithm: ecdsa-with-SHA256
    Signature Value:
        30:46:02:21:00:a1:fc:d0:0c:3c:f8:38:db:b2:87:ad:e8:2a:
        74:9c:3d:15:a0:8c:5f:b0:b6:a4:d0:c0:26:75:76:53:c7:4f:
        51:02:21:00:91:0b:17:41:5e:14:26:da:fb:02:e6:d4:85:46:
        3a:37:bb:1c:3c:35:c8:9c:96:a1:f1:8e:13:8b:5b:bf:de:64
-----BEGIN CERTIFICATE-----
MIIBgzCCASgCAQkwCgYIKoZIzj0EAwIwUTELMAkGA1UEBhMCSU4xFjAUBgNVBAoM
DVYtS2V5IFB0ZSBMdGQxKjAoBgNVBAMMIVYtS2V5IGxpY2Vuc2Ugc2lnbmVyIElu
dGVybWVkaWF0ZTAeFw0yMjA3MDYxMTM3MzhaFw0yMzA3MDYxMTM3MzhaMEkxCzAJ
BgNVBAYTAklOMRYwFAYDVQQKDA1WLUtleSBQdGUgTHRkMSIwIAYDVQQDDBlWLUtl
eSBsaWNlbnNlIHNpZ25lciBMZWFmMFkwEwYHKoZIzj0CAQYIKoZIzj0DAQcDQgAE
8Fxs92cRMoEUSyE5193oKV0qjs/D47GVIO21AbBLNY5+iA3zJx0E5bMJa8BENgZU
fkoqIdVVcGssABOkFPTJpTAKBggqhkjOPQQDAgNJADBGAiEAofzQDDz4ONuyh63o
KnScPRWgjF+wtqTQwCZ1dlPHT1ECIQCRCxdBXhQm2vsC5tSFRjo3uxw8NciclqHx
jhOLW7/eZA==
-----END CERTIFICATE-----
