Certificate:
    Data:
        Version: 3 (0x2)
        Serial Number: 24 (0x18)
        Signature Algorithm: ecdsa-with-SHA256
        Issuer: C=IN, O=V-Key Pte Ltd, CN=V-Key Service Root CA Root
        Validity
            Not Before: Jul  6 11:37:35 2022 GMT
            Not After : Jul  5 11:37:35 2025 GMT
        Subject: C=IN, O=V-Key Pte Ltd, CN=V-Key Service Root CA Root
        Subject Public Key Info:
            Public Key Algorithm: id-ecPublicKey
                Public-Key: (256 bit)
                pub:
                    04:0e:06:14:ab:41:07:83:23:e5:37:71:c9:74:b2:
                    72:46:ac:55:86:e4:59:d3:70:ef:d3:2b:c9:ec:0d:
                    e9:c1:a0:6a:b4:10:ad:d3:14:71:3a:3c:7c:8c:8b:
                    43:49:6d:0b:23:11:06:77:b1:91:71:be:aa:33:eb:
                    14:99:d4:6a:f4
                ASN1 OID: prime256v1
                NIST CURVE: P-256
        X509v3 extensions:
            X509v3 Basic Constraints: critical
                CA:TRUE
            X509v3 Key Usage: critical
                Certificate Sign
            X509v3 Subject Key Identifier: 
                66:E6:20:5A:A2:10:C5:A0:80:68:BD:F4:DD:D6:A3:F1:88:E3:01:E2
    Signature Algorithm: ecdsa-with-SHA256
    Signature Value:
        30:45:02:20:08:2d:44:ba:b9:dc:50:ad:cd:40:29:c5:cd:66:
        ba:ba:d4:cb:4f:a3:15:50:27:b9:d5:b5:e8:de:5d:b8:a1:4a:
        02:21:00:a2:33:09:52:9c:21:a4:8f:f3:1b:05:7a:de:66:14:
        1f:9b:24:07:e5:a6:14:8f:7a:c0:d9:70:f6:49:a8:29:cd
-----BEGIN CERTIFICATE-----
MIIBxTCCAWugAwIBAgIBGDAKBggqhkjOPQQDAjBKMQswCQYDVQQGEwJJTjEWMBQG
A1UECgwNVi1LZXkgUHRlIEx0ZDEjMCEGA1UEAwwaVi1LZXkgU2VydmljZSBSb290
IENBIFJvb3QwHhcNMjIwNzA2MTEzNzM1WhcNMjUwNzA1MTEzNzM1WjBKMQswCQYD
VQQGEwJJTjEWMBQGA1UECgwNVi1LZXkgUHRlIEx0ZDEjMCEGA1UEAwwaVi1LZXkg
U2VydmljZSBSb290IENBIFJvb3QwWTATBgcqhkjOPQIBBggqhkjOPQMBBwNCAAQO
BhSrQQeDI+U3ccl0snJGrFWG5FnTcO/TK8nsDenBoGq0EK3TFHE6PHyMi0NJbQsj
EQZ3sZFxvqoz6xSZ1Gr0o0IwQDAPBgNVHRMBAf8EBTADAQH/MA4GA1UdDwEB/wQE
AwICBDAdBgNVHQ4EFgQUZuYgWqIQxaCAaL303daj8YjjAeIwCgYIKoZIzj0EAwID
SAAwRQIgCC1EurncUK3NQCnFzWa6utTLT6MVUCe51bXo3l24oUoCIQCiMwlSnCGk
j/MbBXreZhQfmyQH5aYUj3rA2XD2SagpzQ==
-----END CERTIFICATE-----
